(lp1
VTeam
p2
aV#RomneyRyan2012
p3
aVwill
p4
aVtake
p5
aVback
p6
aVAmerica...
p7
aVfrom
p8
aVthe
p9
aVpeople.
p10
aVRT
p11
aV@PaulRyanVP:
p12
aVI'm
p13
aVhonored
p14
aVto
p15
aVjoin
p16
aV@MittRomney
p17
aVon
p18
aVAmerica's
p19
aVComeback
p20
aVTeam.
p21
aVhttp://t.co/8gid73By
p22
aV#RomneyRyan2012
p23
aVRT
p24
aV@RomneyCentral:
p25
aVRetweet
p26
aVif
p27
aVyou're
p28
aVfired
p29
aVup
p30
aVfor
p31
aV#RomneyRyan2012
p32
aVRT
p33
aV@hardball:
p34
aVRep.
p35
aVVan
p36
aVHollen:
p37
aV'I
p38
aVdon't
p39
aVthink
p40
aVpeople
p41
aVwant
p42
aVto
p43
aVgo
p44
aVback
p45
aVto
p46
aVa
aVtrickle-down
p47
aVBush
p48
aVeconomy'
p49
aV#RomneyRyan2012
p50
aV#Hardball
p51
aVRT
p52
aV@Lady_Penquin:
p53
aVNotice:
p54
aV#RomneyRyan2012
p55
aVtalks
p56
aVabout
p57
aVAmerica,
p58
aVnot
p59
aVgovernment,
p60
aVnot
p61
aVthemselves.
p62
aVYou'll
p63
aVsee
p64
aVnone
p65
aVof
p66
aVthe
p67
aV"I"
p68
aVstuff,
p69
aVlike
p70
aVfrom
p71
aVnarcissist
p72
aVObama.
p73
aVLooking
p74
aVforward
p75
aVto
p76
aVwatching
p77
aV@PaulRyanVP
p78
aVdebate
p79
aVJoe
p80
aVBiden.
p81
aVLet's
p82
aVget
p83
aVthis
p84
aVeconomy
p85
aVgrowing
p86
aVagain
p87
aV#RomneyRyan2012
p88
aV#entrepreneur
p89
aV#RomneyRyan2012
p90
aVtime
p91
aVfor
p92
aVa
aVnew
p93
aVpresident.
p94
aVhttp://t.co/7VWFCDxr
p95
aV#WeBuiltIt
p96
aV#RomneyRyan2012
p97
aVRomney:
p98
aVObama
p99
aVcut
p100
aVMedicare
p101
aVby
p102
aV$750B!
p103
aVWe
p104
aVwill
p105
aVrestore,
p106
aVretain
p107
aVand
p108
aVprotect
p109
aVMedicare.
p110
aVIf
p111
aVlying
p112
aVwas
p113
aVa
aVcrime
p114
aV#RomneyRyan2012
p115
aV'd
p116
aVbe
p117
aVon
p118
aVdeath
p119
aVrow.
p120
aVPaul
p121
aVRyan
p122
aVused
p123
aVto
p124
aVreceive
p125
aVsocial
p126
aVsecurity
p127
aVpayments,
p128
aVa
aVfact
p129
aVthat
p130
aVmysteriously
p131
aVvanished
p132
aVfrom
p133
aVhis
p134
aVWikipedia
p135
aVentry
p136
aVtoday
p137
aV#romneyryan2012
p138
aV#romneyryan2012
p139
aVhahahaha
p140
aVidk
p141
aVyou
p142
aVbut
p143
aVthis
p144
aVmade
p145
aVme
p146
aVlaugh
p147
aVso
p148
aVhard
p149
aVhttp://t.co/U3vrxHZB
p150
aVPaul
p151
aVRyan
p152
aVis
p153
aVto
p154
aVPolitics
p155
aVwhat
p156
aVStonehenge
p157
aVis
p158
aVto
p159
aVrocks..................USELESS!
p160
aV#RomneyRyan2012
p161
aVRT
p162
aV@AFSCME:
p163
aVPres.
p164
aVSaunders:
p165
aVRomney,
p166
aVRyan
p167
aVMake
p168
aVUp
p169
aV"American
p170
aVDream
p171
aVDemolition
p172
aVTeam"
p173
aVhttp://t.co/7dRUsmM7
p174
aV#1u
p175
aV#p2
p176
aV#RomneyRyan2012
p177
aV#RR2012
p178
aV#RomneyRyan2012:
p179
aV"If
p180
aVyou
p181
aVhave
p182
aVa
aVsmall
p183
aVbusiness,
p184
aVyou
p185
aVDID
p186
aVbuild
p187
aVthat!"
p188
aV#nowwatching
p189
aVhttp://t.co/j3s1BYxG
p190
aVRT
p191
aV@Bristel:
p192
aVHey
p193
aVgirl...
p194
aVIt's
p195
aVPaul
p196
aVRyan.
p197
aVLiterally!
p198
aV#RomneyRyan2012
p199
aV@GreedyOldPricks
p200
aVYou
p201
aVdidn't
p202
aVwrite
p203
aVthat.
p204
aVSomeone
p205
aVelse
p206
aVmade
p207
aVthat
p208
aVdesperate
p209
aVsnark
p210
aVhappen.
p211
aV#RomneyRyan2012
p212
aVRT
p213
aV@RomneyCentral:
p214
aVRetweet
p215
aVif
p216
aVyou're
p217
aVfired
p218
aVup
p219
aVfor
p220
aV#RomneyRyan2012
p221
aVRT
p222
aV@peggiarnold:
p223
aVFirst
p224
aVtime
p225
aVever
p226
aVI'm
p227
aVvoting
p228
aVa
aVRepub
p229
aV4
aVprez
p230
aVand
p231
aVcould
p232
aVnot
p233
aVbe
p234
aVmore
p235
aVexcited!
p236
aV@MittRomney
p237
aV@paulryanvp
p238
aV#RomneyRyan2012
p239
aV@MonicaCrowley
p240
aV@seanhannity
p241
aVIs
p242
aVit
p243
aVthe
p244
aVFascist
p245
aVparty,
p246
aVor
p247
aVthe
p248
aVRepublican
p249
aVparty?
p250
aVI
aVcan't
p251
aVtell
p252
aVthe
p253
aVdifference.
p254
aV#RomneyRyan2012
p255
aVRT
p256
aV@drcamey:
p257
aVObama
p258
aVcampaign
p259
aVcan
p260
aVlie
p261
aVabout
p262
aVRomney,
p263
aVBain
p264
aV&amp;
p265
aVRyan
p266
aVbut
p267
aVnot
p268
aVabout
p269
aVthe
p270
aVeconomy,
p271
aVjobs
p272
aV&amp;
p273
aVthe
p274
aVdeficit.
p275
aV#RomneyRyan2012
p276
aV#TomCole
p277
aVRT
p278
aV@current:
p279
aVWell
p280
aVsaid,
p281
aVMr.
p282
aVPresident!
p283
aV\u201c@BarackObama:
p284
aVWe
p285
aVwon\u2019t
p286
aVgo
p287
aVback:
p288
aVhttp://t.co/J0Pf4qG9\u201d
p289
aV#RomneyRyan2012
p290
aVRT
p291
aV@BorowitzReport:
p292
aVRyan:
p293
aVTrillions
p294
aVCould
p295
aVBe
p296
aVCut
p297
aVfrom
p298
aVBudget
p299
aVif
p300
aVWe
p301
aVEliminate
p302
aVEmpathy
p303
aV#RomneyRyan2012
p304
aV@AJReh:
p305
aV#RomneyRyan2012
p306
aVwill
p307
aVliterally
p308
aVput
p309
aVAmerica
p310
aVin
p311
aVthe
p312
aVstone
p313
aVage;
p314
aVfor
p315
aVwomen,
p316
aVfor
p317
aVliberties
p318
aVand
p319
aVthe
p320
aVeconomy.
p321
aV#unfitMitt
p322
aV#obama2012
p323
aV#RomneyRyan2012
p324
aVFuck
p325
aVObama
p326
aVRT
p327
aV@TeDeumBlog:
p328
aVDebunking
p329
aVmyth
p330
aVthat
p331
aVPaul
p332
aVRyan
p333
aVis
p334
aVan
p335
aVAyn
p336
aVRand
p337
aVdevotee.
p338
aVhttp://t.co/gvveVlgG
p339
aV@CatholicVote
p340
aV#PaulRyan
p341
aV#RomneyRyan2012
p342
aVHas
p343
aVany
p344
aVgovernment
p345
aVofficial
p346
aVever
p347
aVturned
p348
aVout
p349
aVworth
p350
aVa
aVdam
p351
aVoutta
p352
aVIllinois
p353
aV#RomneyRyan2012
p354
aVRT
p355
aV@borowitzreport:
p356
aVRyan:
p357
aVTrillions
p358
aVCould
p359
aVBe
p360
aVCut
p361
aVfrom
p362
aVBudget
p363
aVif
p364
aVWe
p365
aVEliminate
p366
aVEmpathy
p367
aV#RomneyRyan2012
p368
aVRT
p369
aV@KlassyFucker:
p370
aV"2
p371
aVR's
p372
aVCan't
p373
aVMake
p374
aVit
p375
aVRight"
p376
aV#RomneyRyan2012
p377
aVslogans
p378
aVWow,
p379
aVthat's
p380
aVthe
p381
aV2nd
p382
aVtime
p383
aVtoday
p384
aV#RomneyRyan2012
p385
aVhas
p386
aVmade
p387
aVa
aVreference
p388
aVto
p389
aVGod
p390
aVand
p391
aVlaw/rights.
p392
aVNew
p393
aVdirection
p394
aVfor
p395
aVthe
p396
aVcampaign?
p397
aV@LukeRussert
p398
aV#RomneyRyan2012
p399
aVRomney
p400
aVmust
p401
aVnot
p402
aVwant
p403
aVus
p404
aVto
p405
aVdiscuss
p406
aVthe
p407
aVeconomy
p408
aVanymore
p409
aVsince
p410
aVwe'll
p411
aVbe
p412
aVbusy
p413
aVtalking
p414
aVabout
p415
aVgrandma
p416
aVstarving
p417
aVin
p418
aVthe
p419
aVstreet.
p420
aVwe're
p421
aVthrilled
p422
aVtoo
p423
aV:))
p424
aV\u201c@PaulRyanVP:
p425
aVI'm
p426
aVhonored
p427
aVto
p428
aVjoin
p429
aV@MittRomney
p430
aVon
p431
aVAmerica's
p432
aVComeback
p433
aVTeam.
p434
aVhttp://t.co/AAEcH0l2
p435
aV#RomneyRyan2012\u201d
p436
aV#RomneyRyan2012
p437
aVjust
p438
aVseen
p439
aVtv
p440
aVfootage.
p441
aVromney
p442
aVcouldn't
p443
aVeven
p444
aVget
p445
aVryan's
p446
aVpossible
p447
aVjob
p448
aVtitle
p449
aVright.
p450
aV'next
p451
aVpresident
p452
aVof
p453
aVunited
p454
aVstates'.
p455
aVduh!
p456
aV#RomneyRyan2012
p457
aVhas
p458
aVzero
p459
aVdamn
p460
aVchance.
p461
aVI'm
p462
aVso
p463
aVembarassed
p464
aVwith
p465
aVthe
p466
aVrepublican
p467
aVparty
p468
aVas
p469
aVa
aVwhole.
p470
aVRT
p471
aV@TheDailyEdge:
p472
aV#RomneyRyan2012:
p473
aVIf
p474
aVyou
p475
aVdon't
p476
aVagree
p477
aVw/our
p478
aVplan
p479
aVto
p480
aVend
p481
aVMedicare,
p482
aVSocial
p483
aVSecurity
p484
aVand
p485
aVfood
p486
aVstamps,
p487
aVwe
p488
aValso
p489
aVhave
p490
aVa
aVplan
p491
aVto
p492
aVtake
p493
aVaway
p494
aVyour
p495
aVvote
p496
aVRT
p497
aV@PaulRyanVP:
p498
aVI'm
p499
aVhonored
p500
aVto
p501
aVjoin
p502
aV@MittRomney
p503
aVon
p504
aVAmerica's
p505
aVComeback
p506
aVTeam.
p507
aVhttp://t.co/8gid73By
p508
aV#RomneyRyan2012
p509
aV#RomneyRyan2012-#BidenDebateLines-Manassas-Paul
p510
aVRyan-#RR2012-Medicare-Ayn
p511
aVRand-Yogeshwar
p512
aVDutt
p513
aVdid
p514
aVY
aVDutt
p515
aVmneantion
p516
aVRonmney/Ryan?
p517
aV#p2
p518
aV#tcot
p519
aVRT
p520
aV@colbylewis20:
p521
aV#RomneyRyan2012
p522
aVRT
p523
aV@keder:
p524
aVGreat
p525
aVspeech.
p526
aVGreat
p527
aVrally.
p528
aVGreat
p529
aVticket.
p530
aV#Mitt2012
p531
aV#RomneyRyan2012
p532
aVRT
p533
aV@annabelpark:
p534
aV#Koch
p535
aVIndustries
p536
aVannounced
p537
aVtheir
p538
aVpick
p539
aVof
p540
aVCEO
p541
aV&amp;
p542
aVCFO
p543
aVfor
p544
aVmerger
p545
aVw/
p546
aVUS
p547
aVGov
p548
aVInc.
p549
aV@mittromney
p550
aV@paulryanvp
p551
aV#romneyryan2012
p552
aVRT
p553
aV@BorowitzReport:
p554
aVRyan:
p555
aVI
aVWould
p556
aVReplace
p557
aVSocial
p558
aVSecurity
p559
aVwith
p560
aVGroupons
p561
aV#RomneyRyan2012
p562
aVFive
p563
aVBest
p564
aVPaul
p565
aVRyan
p566
aVSpeeches
p567
aVhttp://t.co/v7XgMTWm
p568
aV/so
p569
aVgood
p570
aV#RomneyRyan2012
p571
aVRT
p572
aV@jswagsostupid:
p573
aVMitt
p574
aVspitting
p575
aVcold
p576
aVhard
p577
aVfacts
p578
aVright
p579
aVnow!!
p580
aV#RomneyRyan2012
p581
aV@lolgop
p582
aV#Ryan
p583
aVis
p584
aVthe
p585
aVbiggest
p586
aVhammer
p587
aVever
p588
aVused
p589
aVto
p590
aVpound
p591
aVthe
p592
aVlast
p593
aVnail
p594
aVin
p595
aVthe
p596
aV#RomneyRyan2012
p597
aVcampaign
p598
aVcoffin.
p599
aV#Obama2012
p600
aV#ObamaBiden2012
p601
aVRT
p602
aV@ChicoDelainky:
p603
aVCongratulations
p604
aVPresident
p605
aVObama
p606
aV&amp;
p607
aVVice
p608
aVPresident
p609
aVBiden
p610
aVon
p611
aVyour
p612
aVsecond
p613
aVterm.
p614
aV#RomneyRyan2012
p615
aVRT
p616
aV@MittRomney:
p617
aVI
aVam
p618
aVproud
p619
aVto
p620
aVannounce
p621
aV@PaulRyanVP
p622
aVas
p623
aVmy
p624
aVVP.
p625
aVStand
p626
aVwith
p627
aVus
p628
aVtoday.
p629
aVhttp://t.co/0lH4WbTW
p630
aV#RomneyRyan2012
p631
aV\u201c@foxnewspolitics:
p632
aVIn
p633
aVrunning
p634
aVmate
p635
aVdebut,
p636
aVRep.
p637
aVRyan
p638
aVcomes
p639
aVout
p640
aVswinging
p641
aVhttp://t.co/YfHnFfnQ
p642
aV#RomneyRyan2012\u201d
p643
aV@
aV@BlackmonJudi
p644
aVRT
p645
aV@TheNewDeal:
p646
aVIf
p647
aVYou
p648
aVThink
p649
aVYour
p650
aVLazy
p651
aVGrandparents
p652
aVShould
p653
aVGet
p654
aVa
aVJob
p655
aV&amp;
p656
aVWork
p657
aVTill
p658
aVDeath,
p659
aVVote
p660
aV#RomneyRyan2012
p661
aVto
p662
aVKill
p663
aVMedicare
p664
aV&amp;
p665
aVSocial
p666
aVSecurity.
p667
aV#p2
p668
aV#tcot
p669
aVRT
p670
aV@keder:
p671
aVGreat
p672
aVspeech.
p673
aVGreat
p674
aVrally.
p675
aVGreat
p676
aVticket.
p677
aV#Mitt2012
p678
aV#RomneyRyan2012
p679
aV#RomneyRyan2012
p680
aVYay!!
p681
aVI
aVam
p682
aVglad
p683
aVthis
p684
aVis
p685
aVtrending
p686
aV:)
p687
aVI
aVhope
p688
aVRomney
p689
aVwins
p690
aV:D
p691
aVPaul
p692
aVRyan
p693
aVhas
p694
aVlit
p695
aVa
aVfire
p696
aVunder
p697
aVMitt
p698
aVRomney
p699
aVand
p700
aVhis
p701
aVcampaign!
p702
aVMR
p703
aVwas
p704
aVfeeling
p705
aVit
p706
aVin
p707
aVManassas.
p708
aVGo
p709
aVR&amp;R!
p710
aV#RomneyRyan2012
p711
aV#RomneyRyan2012
p712
aV&lt;&lt;&lt;&lt;&lt;
p713
aV#ReasonsToKillYourself
p714
aVBREAKING:
p715
aV#RomneyRyan2012
p716
aVwill
p717
aVrespond
p718
aVto
p719
aVthe
p720
aVspecifics
p721
aVof
p722
aVReid/Pelosi
p723
aVPlan
p724
aVtomorrow...oh
p725
aVwait...nevermind
p726
aV#tcot
p727
aV@andreamsaul
p728
aVDoes
p729
aV#Ryan
p730
aVeven
p731
aVhave
p732
aVa
aVvision
p733
aVfor
p734
aVthe
p735
aVcountry?
p736
aVSeems
p737
aVit's
p738
aVjust
p739
aVenough
p740
aVgovernment
p741
aVto
p742
aVgive
p743
aVcorporate
p744
aVwelfare,
p745
aVrest
p746
aVis
p747
aVanarchy
p748
aV#RomneyRyan2012
p749
aVRT
p750
aV@BorowitzReport:
p751
aVPaul
p752
aVRyan
p753
aVbeing
p754
aVsworn
p755
aVin
p756
aVas
p757
aVPresident
p758
aVwould
p759
aVbe
p760
aVa
aVgreat
p761
aVlast
p762
aVscene
p763
aVin
p764
aVa
aVPlanet
p765
aVof
p766
aVthe
p767
aVApes
p768
aVremake.
p769
aV#RomneyRyan2012
p770
aVRT
p771
aV@THEHermanCain:
p772
aV"Romney/Ryan
p773
aVRENEWAL
p774
aVof
p775
aVAmerica"
p776
aVversus
p777
aV"Obama/Biden
p778
aVDECLINE
p779
aVof
p780
aVAmerica"
p781
aV@Paulryanvp
p782
aV#RomneyRyan2012
p783
aV#TCOT
p784
aVNo
p785
aVRyan,
p786
aVI've
p787
aVnever
p788
aVseen
p789
aVthe
p790
aVmovie:
p791
aVThrow
p792
aVMama
p793
aVFrom
p794
aVThe
p795
aVTrain.
p796
aVWhy
p797
aVdo
p798
aVyou
p799
aVask?
p800
aV#RomneyRyan2012
p801
aVRT
p802
aV@RomneyCentral:
p803
aVRetweet
p804
aVif
p805
aVyou're
p806
aVfired
p807
aVup
p808
aVfor
p809
aV#RomneyRyan2012
p810
aV#RomneyRyan2012
p811
aV.....
p812
aVmy
p813
aV[insert
p814
aVdisapproving
p815
aVword
p816
aVhere]
p817
aVRT
p818
aV@keder:
p819
aVGreat
p820
aVspeech.
p821
aVGreat
p822
aVrally.
p823
aVGreat
p824
aVticket.
p825
aV#Mitt2012
p826
aV#RomneyRyan2012
p827
aVSave
p828
aVMedicare,
p829
aVvote
p830
aVRomneyRyan
p831
aV#RomneyRyan2012
p832
aVRT
p833
aV@AFSCME:
p834
aVPres.
p835
aVSaunders:
p836
aVRomney,
p837
aVRyan
p838
aVMake
p839
aVUp
p840
aV"American
p841
aVDream
p842
aVDemolition
p843
aVTeam"
p844
aVhttp://t.co/7dRUsmM7
p845
aV#1u
p846
aV#p2
p847
aV#RomneyRyan2012
p848
aV#RR2012
p849
aV#RomneyRyan2012
p850
aV-
aVAlliteration
p851
aVto
p852
aVsave
p853
aVa
aVnation!
p854
aVThis
p855
aVCountry
p856
aVneeds
p857
aVyou!
p858
aVso
p859
aVexcited
p860
aVabout
p861
aV#RomneyRyan2012
p862
aV@PaulRyanVP
p863
aVRT
p864
aV@BorowitzReport:
p865
aVPaul
p866
aVRyan
p867
aVbeing
p868
aVsworn
p869
aVin
p870
aVas
p871
aVPresident
p872
aVwould
p873
aVbe
p874
aVa
aVgreat
p875
aVlast
p876
aVscene
p877
aVin
p878
aVa
aVPlanet
p879
aVof
p880
aVthe
p881
aVApes
p882
aVremake.
p883
aV#RomneyRyan2012
p884
aVRT
p885
aV@andreamsaul:
p886
aVJust
p887
aVpassed
p888
aV$2
p889
aVmillion
p890
aVraised
p891
aVsince
p892
aV@MittRomney
p893
aVannounced
p894
aV@PaulRyanVP
p895
aV#RomneyRyan2012
p896
aVRT
p897
aV@BorowitzReport:
p898
aVRyan:
p899
aVI
aVWould
p900
aVReplace
p901
aVSocial
p902
aVSecurity
p903
aVwith
p904
aVGroupons
p905
aV#RomneyRyan2012
p906
aVAs
p907
aVa
aVyoung
p908
aVadult,
p909
aVas
p910
aVa
aVwoman,
p911
aVas
p912
aVa
aVsoutherner,
p913
aVa
aVconservative
p914
aVI
aVam
p915
aVsupporting
p916
aV#RomneyRyan2012
p917
aV"@hardball:
p918
aVRep.
p919
aVVan
p920
aVHollen:
p921
aV'I
p922
aVdon't
p923
aVthink
p924
aVpeople
p925
aVwant
p926
aVto
p927
aVgo
p928
aVback
p929
aVto
p930
aVa
aVtrickle-down
p931
aVBush
p932
aVeconomy'
p933
aV#RomneyRyan2012
p934
aV#Hardball"
p935
aVLOL!
p936
aVHey
p937
aVgirl...
p938
aVIt's
p939
aVPaul
p940
aVRyan.
p941
aVLiterally!
p942
aV#RomneyRyan2012
p943
aVRT
p944
aV@johnmyers69:
p945
aV#RomneyRyan2012
p946
aVtrending
p947
aVin
p948
aVbaltimore...
p949
aVi
aVlike
p950
aVit
p951
aVRT
p952
aV@dcseth:
p953
aVAfter
p954
aVObama,
p955
aVAmerica
p956
aVcould
p957
aVuse
p958
aVsome
p959
aVR&amp;R!
p960
aV#RomneyRyan2012
p961
aV#RomneyRyan2012
p962
aVhow
p963
aVthe
p964
aVhell
p965
aVdoes
p966
aVhe
p967
aVdo
p968
aVthat!?
p969
aVhttp://t.co/ywGwGQBa
p970
aVhttp://t.co/TcuUa3vl
p971
aVRT
p972
aV@TeaPartyCat:
p973
aVIn
p974
aVcase
p975
aVyou
p976
aVmissed
p977
aVits
p978
aVsubtlety,
p979
aVthe
p980
aV#RomneyRyan2012
p981
aVslogan
p982
aV"America's
p983
aVComeback
p984
aVTeam"
p985
aVmeans
p986
aV"take
p987
aVAmerica
p988
aVback
p989
aVfrom
p990
aVthe
p991
aVblack
p992
aVguy."
p993
aVRT
p994
aV@PrepGirl_Probz:
p995
aV#RomneyRyan2012
p996
aVAnother
p997
aVanti-GOP
p998
aVhashtag
p999
aVis
p1000
aVtrending:
p1001
aV#RomneyRyan2012.
p1002
aVRWNJs
p1003
aVdon't
p1004
aVeven
p1005
aVrealize
p1006
aVit's
p1007
aVpro-America,
p1008
aVanti-Romney.
p1009
aVIdiots!
p1010
aVLOL
p1011
aVRT
p1012
aV@BorowitzReport:
p1013
aVPaul
p1014
aVRyan
p1015
aVbeing
p1016
aVsworn
p1017
aVin
p1018
aVas
p1019
aVPresident
p1020
aVwould
p1021
aVbe
p1022
aVa
aVgreat
p1023
aVlast
p1024
aVscene
p1025
aVin
p1026
aVa
aVPlanet
p1027
aVof
p1028
aVthe
p1029
aVApes
p1030
aVremake.
p1031
aV#RomneyRyan2012
p1032
aVRT
p1033
aV@bloodless_coup:
p1034
aVWait...
p1035
aV#RomneyRyan2012
p1036
aVgave
p1037
aVentire
p1038
aVspeeches
p1039
aVwith
p1040
aVNO
p1041
aVnotes
p1042
aVand
p1043
aVNO
p1044
aVteleprompter?
p1045
aVBut...
p1046
aVbut...
p1047
aVbut...
p1048
aVHow
p1049
aVdid
p1050
aVthey
p1051
aVknow
p1052
aVwhat
p1053
aVto
p1054
aVsay?
p1055
aVWhoa...
p1056
aVRT
p1057
aV@TheDemocrats:
p1058
aVPaul
p1059
aVRyan
p1060
aVsupported
p1061
aVletting
p1062
aVstates
p1063
aVprosecute
p1064
aVwomen
p1065
aVwho
p1066
aVhave
p1067
aVabortions
p1068
aVand
p1069
aVdoctors
p1070
aVwho
p1071
aVperform
p1072
aVthem.
p1073
aV#RomneyRyan2012
p1074
aVRT
p1075
aV@TeamBachmann:
p1076
aV#RomneyRyan2012
p1077
aVis
p1078
aVa
aVwinning
p1079
aVcombination!
p1080
aVRT
p1081
aVif
p1082
aVAmerica's
p1083
aVComeback
p1084
aVTeam
p1085
aVhas
p1086
aVyour
p1087
aVsupport.
p1088
aV#tcot
p1089
aV@PaulRyanVP
p1090
aV@MittRomney
p1091
aV#RomneyRyan2012
p1092
aVRT
p1093
aV@bigbrogdog01:
p1094
aV#RomneyRyan2012
p1095
aVRT
p1096
aV@MittRomney:
p1097
aVI
aVam
p1098
aVproud
p1099
aVto
p1100
aVannounce
p1101
aV@PaulRyanVP
p1102
aVas
p1103
aVmy
p1104
aVVP.
p1105
aVStand
p1106
aVwith
p1107
aVus
p1108
aVtoday.
p1109
aVhttp://t.co/0lH4WbTW
p1110
aV#RomneyRyan2012
p1111
aVIs
p1112
aVit
p1113
aVtrue
p1114
aV#PaulRyan
p1115
aVand
p1116
aVBachmann
p1117
aVare
p1118
aVrelated?
p1119
aV#tcot
p1120
aV#RomneyRyan2012
p1121
aV#RomneyRyan2012
p1122
aVyou
p1123
aVshould
p1124
aVsee
p1125
aVthis
p1126
aVhttp://t.co/EaO0cuzs
p1127
aVhttp://t.co/k0dHPgyy
p1128
aVRT
p1129
aV@dcseth:
p1130
aVAfter
p1131
aVObama,
p1132
aVAmerica
p1133
aVcould
p1134
aVuse
p1135
aVsome
p1136
aVR&amp;R!
p1137
aV#RomneyRyan2012
p1138
aVRT
p1139
aV@AFSCME:
p1140
aVPres.
p1141
aVSaunders:
p1142
aVRomney,
p1143
aVRyan
p1144
aVMake
p1145
aVUp
p1146
aV"American
p1147
aVDream
p1148
aVDemolition
p1149
aVTeam"
p1150
aVhttp://t.co/7dRUsmM7
p1151
aV#1u
p1152
aV#p2
p1153
aV#RomneyRyan2012
p1154
aV#RR2012
p1155
aVRT
p1156
aV@PPact:
p1157
aV5
aVthings
p1158
aVyou
p1159
aVneed
p1160
aVto
p1161
aVknow
p1162
aVabout
p1163
aVwhere
p1164
aVPaul
p1165
aVRyan
p1166
aVstands
p1167
aVon
p1168
aVwomen's
p1169
aVhealth:
p1170
aVhttp://t.co/ELEV4rT0
p1171
aV#women2012
p1172
aV#RomneyRyan2012
p1173
aV#RomneyRyan2012
p1174
aV#NoBama
p1175
aV#America
p1176
aVRT
p1177
aV@bloodless_coup:
p1178
aVWait...
p1179
aV#RomneyRyan2012
p1180
aVgave
p1181
aVentire
p1182
aVspeeches
p1183
aVwith
p1184
aVNO
p1185
aVnotes
p1186
aVand
p1187
aVNO
p1188
aVteleprompter?
p1189
aVBut...
p1190
aVbut...
p1191
aVbut...
p1192
aVHow
p1193
aVdid
p1194
aVthey
p1195
aVknow
p1196
aVwhat
p1197
aVto
p1198
aVsay?
p1199
aVWhoa...
p1200
aVRT
p1201
aV@ChicoDelainky:
p1202
aVCongratulations
p1203
aVPresident
p1204
aVObama
p1205
aV&amp;
p1206
aVVice
p1207
aVPresident
p1208
aVBiden
p1209
aVon
p1210
aVyour
p1211
aVsecond
p1212
aVterm.
p1213
aV#RomneyRyan2012
p1214
aVRT
p1215
aV@TheDemocrats:
p1216
aVPaul
p1217
aVRyan's
p1218
aVbudget
p1219
aVwould
p1220
aVend
p1221
aVMedicare
p1222
aVas
p1223
aVwe
p1224
aVknow
p1225
aVit,
p1226
aVturning
p1227
aVit
p1228
aVinto
p1229
aVa
aVvoucher
p1230
aVprogram.
p1231
aV#RomneyRyan2012
p1232
aV.@BarackObama
p1233
aVDUDE
p1234
aV-
aVyou
p1235
aVmust
p1236
aVbe
p1237
aVscared
p1238
aVto
p1239
aVdeath
p1240
aVof
p1241
aV.@PaulRyanVP!
p1242
aVHow
p1243
aVmany
p1244
aVattack
p1245
aVtweets
p1246
aVhave
p1247
aVyou
p1248
aVposted
p1249
aVsince
p1250
aVnoon?
p1251
aV#RomneyRyan2012!
p1252
aVAre
p1253
aV@MittRomney
p1254
aVand
p1255
aV@PaulRyanVP
p1256
aVcoming
p1257
aVto
p1258
aVNew
p1259
aVJersey
p1260
aVbefore
p1261
aVNovember
p1262
aV6?
p1263
aV#RomneyRyan2012
p1264
aV...
p1265
aVdaym
p1266
aVok
p1267
aVpaul
p1268
aVryan
p1269
aVu
aVis
p1270
aVkinda
p1271
aVcute
p1272
aV#RomneyRyan2012
p1273
aVRT
p1274
aV@dgjackson:
p1275
aVNew
p1276
aVsigns
p1277
aV#RomneyRyan2012
p1278
aVhttp://t.co/dcaWPZeA
p1279
aVRT
p1280
aV@PPact:
p1281
aV5
aVthings
p1282
aVyou
p1283
aVneed
p1284
aVto
p1285
aVknow
p1286
aVabout
p1287
aVwhere
p1288
aVPaul
p1289
aVRyan
p1290
aVstands
p1291
aVon
p1292
aVwomen's
p1293
aVhealth:
p1294
aVhttp://t.co/ELEV4rT0
p1295
aV#women2012
p1296
aV#RomneyRyan2012
p1297
aVRT
p1298
aV@BorowitzReport:
p1299
aVBREAKING:
p1300
aVRyan
p1301
aVProposes
p1302
aVCutting
p1303
aVThree
p1304
aVof
p1305
aVFour
p1306
aVFood
p1307
aVGroups
p1308
aV#RomneyRyan2012
p1309
aV#RomneyRyan2012
p1310
aVcan
p1311
aVi
aVspam
p1312
aVthis?
p1313
aVRT
p1314
aV@PPact:
p1315
aVPaul
p1316
aVRyan
p1317
aVis
p1318
aVjust
p1319
aVas
p1320
aVbad
p1321
aVas
p1322
aV#Romney
p1323
aVon
p1324
aVwomen's
p1325
aVhealth.
p1326
aVTell
p1327
aV#RomneyRyan2012:
p1328
aVyou\u2019re
p1329
aVnot
p1330
aVmy
p1331
aVticket!
p1332
aVSign
p1333
aVhere:
p1334
aVhttp://t.co/E5U00CJO
p1335
aV#RomneyRyan2012
p1336
aVRT
p1337
aV@keder
p1338
aVCrowd
p1339
aVgoes
p1340
aVNUTS
p1341
aVfor
p1342
aV#Mitt2012!!!
p1343
aVhttp://t.co/rMiCyGeW
p1344
aVRT
p1345
aV@MittRomney:
p1346
aVI
aVam
p1347
aVproud
p1348
aVto
p1349
aVannounce
p1350
aV@PaulRyanVP
p1351
aVas
p1352
aVmy
p1353
aVVP.
p1354
aVStand
p1355
aVwith
p1356
aVus
p1357
aVtoday.
p1358
aVhttp://t.co/0lH4WbTW
p1359
aV#RomneyRyan2012
p1360
aVIs
p1361
aVit
p1362
aVtrue
p1363
aV#PaulRyan
p1364
aVand
p1365
aVBachmann
p1366
aVare
p1367
aVrelated?
p1368
aV#tcot
p1369
aV#RomneyRyan2012
p1370
aV#RomneyRyan2012
p1371
aVyou
p1372
aVshould
p1373
aVsee
p1374
aVthis
p1375
aVhttp://t.co/EaO0cuzs
p1376
aVhttp://t.co/k0dHPgyy
p1377
aVRT
p1378
aV@dcseth:
p1379
aVAfter
p1380
aVObama,
p1381
aVAmerica
p1382
aVcould
p1383
aVuse
p1384
aVsome
p1385
aVR&amp;R!
p1386
aV#RomneyRyan2012
p1387
aVRT
p1388
aV@AFSCME:
p1389
aVPres.
p1390
aVSaunders:
p1391
aVRomney,
p1392
aVRyan
p1393
aVMake
p1394
aVUp
p1395
aV"American
p1396
aVDream
p1397
aVDemolition
p1398
aVTeam"
p1399
aVhttp://t.co/7dRUsmM7
p1400
aV#1u
p1401
aV#p2
p1402
aV#RomneyRyan2012
p1403
aV#RR2012
p1404
aVRT
p1405
aV@PPact:
p1406
aV5
aVthings
p1407
aVyou
p1408
aVneed
p1409
aVto
p1410
aVknow
p1411
aVabout
p1412
aVwhere
p1413
aVPaul
p1414
aVRyan
p1415
aVstands
p1416
aVon
p1417
aVwomen's
p1418
aVhealth:
p1419
aVhttp://t.co/ELEV4rT0
p1420
aV#women2012
p1421
aV#RomneyRyan2012
p1422
aV#RomneyRyan2012
p1423
aV#NoBama
p1424
aV#America
p1425
aVRT
p1426
aV@bloodless_coup:
p1427
aVWait...
p1428
aV#RomneyRyan2012
p1429
aVgave
p1430
aVentire
p1431
aVspeeches
p1432
aVwith
p1433
aVNO
p1434
aVnotes
p1435
aVand
p1436
aVNO
p1437
aVteleprompter?
p1438
aVBut...
p1439
aVbut...
p1440
aVbut...
p1441
aVHow
p1442
aVdid
p1443
aVthey
p1444
aVknow
p1445
aVwhat
p1446
aVto
p1447
aVsay?
p1448
aVWhoa...
p1449
aVRT
p1450
aV@ChicoDelainky:
p1451
aVCongratulations
p1452
aVPresident
p1453
aVObama
p1454
aV&amp;
p1455
aVVice
p1456
aVPresident
p1457
aVBiden
p1458
aVon
p1459
aVyour
p1460
aVsecond
p1461
aVterm.
p1462
aV#RomneyRyan2012
p1463
aVRT
p1464
aV@TheDemocrats:
p1465
aVPaul
p1466
aVRyan's
p1467
aVbudget
p1468
aVwould
p1469
aVend
p1470
aVMedicare
p1471
aVas
p1472
aVwe
p1473
aVknow
p1474
aVit,
p1475
aVturning
p1476
aVit
p1477
aVinto
p1478
aVa
aVvoucher
p1479
aVprogram.
p1480
aV#RomneyRyan2012
p1481
aV.@BarackObama
p1482
aVDUDE
p1483
aV-
aVyou
p1484
aVmust
p1485
aVbe
p1486
aVscared
p1487
aVto
p1488
aVdeath
p1489
aVof
p1490
aV.@PaulRyanVP!
p1491
aVHow
p1492
aVmany
p1493
aVattack
p1494
aVtweets
p1495
aVhave
p1496
aVyou
p1497
aVposted
p1498
aVsince
p1499
aVnoon?
p1500
aV#RomneyRyan2012!
p1501
aVAre
p1502
aV@MittRomney
p1503
aVand
p1504
aV@PaulRyanVP
p1505
aVcoming
p1506
aVto
p1507
aVNew
p1508
aVJersey
p1509
aVbefore
p1510
aVNovember
p1511
aV6?
p1512
aV#RomneyRyan2012
p1513
aV...
p1514
aVdaym
p1515
aVok
p1516
aVpaul
p1517
aVryan
p1518
aVu
aVis
p1519
aVkinda
p1520
aVcute
p1521
aV#RomneyRyan2012
p1522
aVRT
p1523
aV@dgjackson:
p1524
aVNew
p1525
aVsigns
p1526
aV#RomneyRyan2012
p1527
aVhttp://t.co/dcaWPZeA
p1528
aVRT
p1529
aV@PPact:
p1530
aV5
aVthings
p1531
aVyou
p1532
aVneed
p1533
aVto
p1534
aVknow
p1535
aVabout
p1536
aVwhere
p1537
aVPaul
p1538
aVRyan
p1539
aVstands
p1540
aVon
p1541
aVwomen's
p1542
aVhealth:
p1543
aVhttp://t.co/ELEV4rT0
p1544
aV#women2012
p1545
aV#RomneyRyan2012
p1546
aVRT
p1547
aV@BorowitzReport:
p1548
aVBREAKING:
p1549
aVRyan
p1550
aVProposes
p1551
aVCutting
p1552
aVThree
p1553
aVof
p1554
aVFour
p1555
aVFood
p1556
aVGroups
p1557
aV#RomneyRyan2012
p1558
aV#RomneyRyan2012
p1559
aVcan
p1560
aVi
aVspam
p1561
aVthis?
p1562
aVRT
p1563
aV@PPact:
p1564
aVPaul
p1565
aVRyan
p1566
aVis
p1567
aVjust
p1568
aVas
p1569
aVbad
p1570
aVas
p1571
aV#Romney
p1572
aVon
p1573
aVwomen's
p1574
aVhealth.
p1575
aVTell
p1576
aV#RomneyRyan2012:
p1577
aVyou\u2019re
p1578
aVnot
p1579
aVmy
p1580
aVticket!
p1581
aVSign
p1582
aVhere:
p1583
aVhttp://t.co/E5U00CJO
p1584
aV#RomneyRyan2012
p1585
aVRT
p1586
aV@keder
p1587
aVCrowd
p1588
aVgoes
p1589
aVNUTS
p1590
aVfor
p1591
aV#Mitt2012!!!
p1592
aVhttp://t.co/rMiCyGeW
p1593
aVRT
p1594
aV@keder:
p1595
aVGreat
p1596
aVspeech.
p1597
aVGreat
p1598
aVrally.
p1599
aVGreat
p1600
aVticket.
p1601
aV#Mitt2012
p1602
aV#RomneyRyan2012
p1603
aVRT
p1604
aV@Lady_Penquin:
p1605
aVNotice:
p1606
aV#RomneyRyan2012
p1607
aVtalks
p1608
aVabout
p1609
aVAmerica,
p1610
aVnot
p1611
aVgovernment,
p1612
aVnot
p1613
aVthemselves.
p1614
aVYou'll
p1615
aVsee
p1616
aVnone
p1617
aVof
p1618
aVthe
p1619
aV"I"
p1620
aVstuff,
p1621
aVlike
p1622
aVfrom
p1623
aVnarcissist
p1624
aVObama.
p1625
aVRT
p1626
aV@TheDemocrats:
p1627
aVPaul
p1628
aVRyan
p1629
aVsupported
p1630
aVletting
p1631
aVstates
p1632
aVprosecute
p1633
aVwomen
p1634
aVwho
p1635
aVhave
p1636
aVabortions
p1637
aVand
p1638
aVdoctors
p1639
aVwho
p1640
aVperform
p1641
aVthem.
p1642
aV#RomneyRyan2012
p1643
aVGame
p1644
aVon!
p1645
aV@PaulRyanVP
p1646
aV@MittRomney
p1647
aV#RomneyRyan2012
p1648
aV#RomneyRyan2012
p1649
aV...
p1650
aVwho
p1651
aVcares....
p1652
aVRT
p1653
aV@BourbonAgedNeat:
p1654
aV#RomneyRyan2012
p1655
aV#RomneyRyan2012
p1656
aVholy
p1657
aVshit!
p1658
aVhttp://t.co/aO6GMJju
p1659
aVhttp://t.co/6kQJdthX
p1660
aV#RomneyRyan2012
p1661
aVhttp://t.co/Onp5XVhp
p1662
aVRT
p1663
aV@Uncag3dGorilla:
p1664
aV#RomneyRyan2012
p1665
aVThe
p1666
aVRich
p1667
aVWill
p1668
aVGet
p1669
aVRicher....The
p1670
aVMiddle
p1671
aVClass
p1672
aVWill
p1673
aVTurn
p1674
aVInto
p1675
aVThe
p1676
aVLower
p1677
aVClass
p1678
aV&amp;
p1679
aVThe
p1680
aVLower
p1681
aVClass
p1682
aVWill
p1683
aVFail
p1684
aVTo
p1685
aVExist
p1686
aV#RomneyRyan2012:
p1687
aVRepeal
p1688
aV&amp;
p1689
aVreheat?
p1690
aVMT
p1691
aV@MicheleBachmann
p1692
aV#Obamacare
p1693
aVgood
p1694
aVfor
p1695
aVeconomy?
p1696
aVEven
p1697
aVPizza
p1698
aVwill
p1699
aVbe
p1700
aVmore
p1701
aVexpensive:
p1702
aVhttp://t.co/vq6SJ9rM
p1703
aVRT
p1704
aV@AFSCME:
p1705
aVPres.
p1706
aVSaunders:
p1707
aVRomney,
p1708
aVRyan
p1709
aVMake
p1710
aVUp
p1711
aV"American
p1712
aVDream
p1713
aVDemolition
p1714
aVTeam"
p1715
aVhttp://t.co/7dRUsmM7
p1716
aV#1u
p1717
aV#p2
p1718
aV#RomneyRyan2012
p1719
aV#RR2012
p1720
aV#RomneyRyan2012
p1721
aVcan
p1722
aVthis
p1723
aVreally
p1724
aVhappen?
p1725
aVhttp://t.co/IAUJ5O2z
p1726
aVhttp://t.co/1QtINymW
p1727
aVRomney
p1728
aVhas
p1729
aVa
aVtalent
p1730
aVfor
p1731
aVmedia
p1732
aVscrew
p1733
aVups,
p1734
aVintroduces
p1735
aVhis
p1736
aVrunning
p1737
aVmate
p1738
aVn
aVVP
p1739
aVand
p1740
aVthe
p1741
aVnext
p1742
aVpresident.
p1743
aVhttp://t.co/nhl7b3Dq
p1744
aV#fail
p1745
aV#RomneyRyan2012
p1746
aVWe
p1747
aVwill
p1748
aVnot
p1749
aVbe
p1750
aVGreece.
p1751
aV#RomneyRyan2012
p1752
aVRT
p1753
aV@MittRomney:
p1754
aVI
aVam
p1755
aVproud
p1756
aVto
p1757
aVannounce
p1758
aV@PaulRyanVP
p1759
aVas
p1760
aVmy
p1761
aVVP.
p1762
aVStand
p1763
aVwith
p1764
aVus
p1765
aVtoday.
p1766
aVhttp://t.co/0lH4WbTW
p1767
aV#RomneyRyan2012
p1768
aVRT
p1769
aV@andreamsaul:
p1770
aVJust
p1771
aVpassed
p1772
aV$2
p1773
aVmillion
p1774
aVraised
p1775
aVsince
p1776
aV@MittRomney
p1777
aVannounced
p1778
aV@PaulRyanVP
p1779
aV#RomneyRyan2012
p1780
aVThinking
p1781
aVabt
p1782
aVdonating
p1783
aVto
p1784
aVthe
p1785
aVRomney
p1786
aVcampaign.
p1787
aVI
aVdon't
p1788
aVhave
p1789
aVmuch,
p1790
aVbut
p1791
aVit's
p1792
aVa
aVworthy
p1793
aVcause.
p1794
aV#RomneyRyan2012
p1795
aVIf
p1796
aVin
p1797
aVthe
p1798
aVfollowing
p1799
aVelection
p1800
aV#RomneyRyan2012
p1801
aVget
p1802
aVelected,
p1803
aVI'm
p1804
aVsooooo
p1805
aVmoving
p1806
aVback
p1807
aVto
p1808
aVIreland!
p1809
aV#nojoke
p1810
aV#truetalk
p1811
aVRT
p1812
aV@jane747:
p1813
aVRT
p1814
aV"@PaulRyanVP:
p1815
aVI'm
p1816
aVhonored
p1817
aVto
p1818
aVjoin
p1819
aV@MittRomney
p1820
aVon
p1821
aVAmerica's
p1822
aVComeback
p1823
aVTeam.
p1824
aVhttp://t.co/lO0xRSZt
p1825
aV#RomneyRyan2012"
p1826
aVRT
p1827
aV@Southern_Gents_:
p1828
aV#RomneyRyan2012
p1829
aVAmericas
p1830
aVcomeback
p1831
aVteam.
p1832
aV#RomneyRyan2012...
p1833
aVFuck
p1834
aVit...
p1835
aV#MettaFollowAPAndJulian
p1836
aV#RomneyRyan2012
p1837
aV-
aVno
p1838
aVone
p1839
aVis
p1840
aVforgetting
p1841
aVthat
p1842
aVRyan
p1843
aVwants
p1844
aVto
p1845
aVkill
p1846
aVMedicare
p1847
aVand
p1848
aVRomney
p1849
aVis
p1850
aVhiding
p1851
aVhis
p1852
aVtaxes
p1853
aV-
aVlets
p1854
aVnot
p1855
aVforget
p1856
aVthe
p1857
aV#GOP
p1858
aV#bigotry
p1859
aVRT
p1860
aV@TheDemocrats:
p1861
aVPaul
p1862
aVRyan
p1863
aVsupported
p1864
aVletting
p1865
aVstates
p1866
aVprosecute
p1867
aVwomen
p1868
aVwho
p1869
aVhave
p1870
aVabortions
p1871
aVand
p1872
aVdoctors
p1873
aVwho
p1874
aVperform
p1875
aVthem.
p1876
aV#RomneyRyan2012
p1877
aVSo
p1878
aVhappy
p1879
aVabout
p1880
aVRomney
p1881
aVpicking
p1882
aVPaul
p1883
aVRyan.
p1884
aVHe
p1885
aVneeded
p1886
aVeither
p1887
aVhim
p1888
aVor
p1889
aVRubio
p1890
aVand
p1891
aVnow
p1892
aVhe
p1893
aVhas
p1894
aVthe
p1895
aVwinning
p1896
aVticket.
p1897
aV#RomneyRyan2012
p1898
aVRT
p1899
aV@ZacMoffatt:
p1900
aVPHOTO:
p1901
aVGreat
p1902
aVcrowd
p1903
aVin
p1904
aVManassas,
p1905
aVVA
p1906
aVfor
p1907
aV@MittRomney
p1908
aV&amp;
p1909
aV@PaulRyanVP
p1910
aV#RomneyRyan2012
p1911
aVhttp://t.co/aVmrsLoo
p1912
aVRT
p1913
aV@MacksonJolleur
p1914
aVLets
p1915
aVget
p1916
aVour
p1917
aVeconomy
p1918
aVback
p1919
aVon
p1920
aVtrack
p1921
aVby
p1922
aVreturning
p1923
aVto
p1924
aVthe
p1925
aVpolicies
p1926
aVthat
p1927
aVgot
p1928
aVus
p1929
aVin
p1930
aVtrouble
p1931
aVin
p1932
aVthe
p1933
aVfirst
p1934
aVplace
p1935
aV#RomneyRyan2012
p1936
aVRT
p1937
aV@bloodless_coup:
p1938
aVWait...
p1939
aV#RomneyRyan2012
p1940
aVgave
p1941
aVentire
p1942
aVspeeches
p1943
aVwith
p1944
aVNO
p1945
aVnotes
p1946
aVand
p1947
aVNO
p1948
aVteleprompter?
p1949
aVBut...
p1950
aVbut...
p1951
aVbut...
p1952
aVHow
p1953
aVdid
p1954
aVthey
p1955
aVknow
p1956
aVwhat
p1957
aVto
p1958
aVsay?
p1959
aVWhoa...
p1960
aV#RomneyRyan2012
p1961
aV&gt;&gt;&gt;
p1962
aVRT
p1963
aV@adjordan:
p1964
aVNuns
p1965
aVprotest
p1966
aVagainst
p1967
aVRep.
p1968
aVPaul
p1969
aVRyan
p1970
aVover
p1971
aVbudget
p1972
aVcuts
p1973
aV|
aVhttp://t.co/pymepOEF
p1974
aV#RomneyRyan2012
p1975
aV#pinkslime
p1976
aV#ryanbudget
p1977
aV#nunsonthebus
p1978
aVRT
p1979
aV@LiterallyFedUp:
p1980
aV#RomneyRyan2012
p1981
aV-
aVStart
p1982
aVYour
p1983
aVEngines
p1984
aVPolitical
p1985
aVfact
p1986
aVof
p1987
aVthe
p1988
aVday:
p1989
aVPaul
p1990
aVRyan's
p1991
aVwife,
p1992
aVJana,
p1993
aVis
p1994
aVthe
p1995
aVniece
p1996
aVof
p1997
aVformer
p1998
aVGov.
p1999
aVand
p2000
aVOU
p2001
aVPres.
p2002
aVDavid
p2003
aVBoren.
p2004
aV#BoomerSooner
p2005
aV#RomneyRyan2012
p2006
aVAmerica
p2007
aVhas
p2008
aVa
aVchance
p2009
aVfor
p2010
aVonce
p2011
aVin
p2012
aV4
aVyears
p2013
aVof
p2014
aVnothing
p2015
aV#RomneyRyan2012
p2016
aVRT
p2017
aV@BorowitzReport:
p2018
aVRyan:
p2019
aVTrillions
p2020
aVCould
p2021
aVBe
p2022
aVCut
p2023
aVfrom
p2024
aVBudget
p2025
aVif
p2026
aVWe
p2027
aVEliminate
p2028
aVEmpathy
p2029
aV#RomneyRyan2012
p2030
aV#RomneyRyan2012
p2031
aV#no
p2032
aVIf
p2033
aVa
aVMormon
p2034
aVand
p2035
aVa
aVCatholic
p2036
aVcome
p2037
aVtogether
p2038
aVthrough
p2039
aVAyn
p2040
aVRand,
p2041
aVdo
p2042
aVthey
p2043
aVbecome
p2044
aVScientologists?
p2045
aV#GOP
p2046
aV#RomneyRyan2012
p2047
aVcannot
p2048
aVexplain
p2049
aVhow
p2050
aVhappy
p2051
aVI
aVam
p2052
aVthat
p2053
aV#RomneyRyan2012
p2054
aVis
p2055
aVa
aVtrending
p2056
aVtopic
p2057
aV\u2764\U0001f418\u2764\U0001f418
p2058
aVRT
p2059
aV@PPact:
p2060
aV5
aVthings
p2061
aVyou
p2062
aVneed
p2063
aVto
p2064
aVknow
p2065
aVabout
p2066
aVwhere
p2067
aVPaul
p2068
aVRyan
p2069
aVstands
p2070
aVon
p2071
aVwomen's
p2072
aVhealth:
p2073
aVhttp://t.co/ELEV4rT0
p2074
aV#women2012
p2075
aV#RomneyRyan2012
p2076
aV@MittRomney,
p2077
aVI'm
p2078
aVloving
p2079
aVthe
p2080
aVenergy
p2081
aVand
p2082
aVam
p2083
aVlooking
p2084
aVforward
p2085
aVto
p2086
aVyour
p2087
aVFlorida
p2088
aVtour
p2089
aVwith
p2090
aV@RepPaulRyan
p2091
aV#RomneyRyan2012
p2092
aV#SayFie
p2093
aVfuck
p2094
aV#romneyryan2012
p2095
aVRT
p2096
aV@TheDailyEdge:
p2097
aV#RomneyRyan2012:
p2098
aVIf
p2099
aVyou
p2100
aVdon't
p2101
aVagree
p2102
aVw/our
p2103
aVplan
p2104
aVto
p2105
aVend
p2106
aVMedicare,
p2107
aVSocial
p2108
aVSecurity
p2109
aVand
p2110
aVfood
p2111
aVstamps,
p2112
aVwe
p2113
aValso
p2114
aVhave
p2115
aVa
aVplan
p2116
aVto
p2117
aVtake
p2118
aVaway
p2119
aVyour
p2120
aVvote
p2121
aV@Lady_Penquin
p2122
aVYou
p2123
aVmust
p2124
aVbe
p2125
aVkidding,
p2126
aVCons
p2127
aVfixate
p2128
aVon
p2129
aVthe
p2130
aVmost
p2131
aVtrivial
p2132
aVof
p2133
aVissues
p2134
aV(ie
p2135
aVteleprompter)
p2136
aVand
p2137
aVclaim
p2138
aVvictory.
p2139
aV#RomneyRyan2012
p2140
aV#gop
p2141
aV#p2
p2142
aVRT
p2143
aV@michellemalkin:
p2144
aVRIGHT
p2145
aVON!
p2146
aVPaul
p2147
aVRyan:
p2148
aV"We
p2149
aVwill
p2150
aVnot
p2151
aVreplace
p2152
aVour
p2153
aVfounding
p2154
aVprinciples,
p2155
aVwe
p2156
aVwill
p2157
aVreapply
p2158
aVthem."
p2159
aV#RomneyRyan2012
p2160
aV#RomneyRyan2012
p2161
aVhow
p2162
aVcan
p2163
aVthis
p2164
aVhappen?
p2165
aVhttp://t.co/ywGwGQBa
p2166
aVhttp://t.co/TcuUa3vl
p2167
aVRT
p2168
aV@THEHermanCain:
p2169
aV"Romney/Ryan
p2170
aVRENEWAL
p2171
aVof
p2172
aVAmerica"
p2173
aVversus
p2174
aV"Obama/Biden
p2175
aVDECLINE
p2176
aVof
p2177
aVAmerica"
p2178
aV@Paulryanvp
p2179
aV#RomneyRyan2012
p2180
aV#TCOT
p2181
aVPrescriptions
p2182
aVor
p2183
aVFood
p2184
aV#Election2012
p2185
aV#RomneyRyan2012
p2186
aVhttp://t.co/MJH66zuh
p2187
aVGreat
p2188
aVquote
p2189
aVI
aVheard
p2190
aVon
p2191
aVthe
p2192
aVradio:
p2193
aV"After
p2194
aV4
aVyears
p2195
aVof
p2196
aVPresident
p2197
aVObama's
p2198
aVfailed
p2199
aVpolicies,
p2200
aVthe
p2201
aVcountry
p2202
aVcould
p2203
aVuse
p2204
aVa
aVlittle
p2205
aVR&amp;R."
p2206
aV#RomneyRyan2012
p2207
aVRT
p2208
aV"@PaulRyanVP:
p2209
aVI'm
p2210
aVhonored
p2211
aVto
p2212
aVjoin
p2213
aV@MittRomney
p2214
aVon
p2215
aVAmerica's
p2216
aVComeback
p2217
aVTeam.
p2218
aVhttp://t.co/lO0xRSZt
p2219
aV#RomneyRyan2012"
p2220
aVRT
p2221
aV@BarackProblema:
p2222
aV#RomneyRyan2012
p2223
aVIs
p2224
aVan
p2225
aVextremely
p2226
aVstrong
p2227
aVteam
p2228
aVto
p2229
aVlead
p2230
aVthe
p2231
aVcountry.
p2232
aVCompared
p2233
aVto
p2234
aVour
p2235
aVcurrent
p2236
aVdisgrace
p2237
aVin
p2238
aVoffice,
p2239
aVthis
p2240
aVis
p2241
aVlike
p2242
aVwinning
p2243
aVthe
p2244
aVlotto.
p2245
aVRT
p2246
aV@TheDemocrats:
p2247
aVPaul
p2248
aVRyan
p2249
aVsupported
p2250
aVletting
p2251
aVstates
p2252
aVprosecute
p2253
aVwomen
p2254
aVwho
p2255
aVhave
p2256
aVabortions
p2257
aVand
p2258
aVdoctors
p2259
aVwho
p2260
aVperform
p2261
aVthem.
p2262
aV#RomneyRyan2012
p2263
aVRT
p2264
aV@The_KennyM:
p2265
aVPaul
p2266
aVRyan
p2267
aVhas
p2268
aVspent
p2269
aVthe
p2270
aVday
p2271
aVshowing
p2272
aVexactly
p2273
aVwhy
p2274
aVhe
p2275
aVwas
p2276
aVthe
p2277
aVperfect
p2278
aVVP
p2279
aVpick.
p2280
aV#RomneyRyan2012
p2281
aVRT
p2282
aV@BarackProblema:
p2283
aV#RomneyRyan2012
p2284
aVIs
p2285
aVan
p2286
aVextremely
p2287
aVstrong
p2288
aVteam
p2289
aVto
p2290
aVlead
p2291
aVthe
p2292
aVcountry.
p2293
aVCompared
p2294
aVto
p2295
aVour
p2296
aVcurrent
p2297
aVdisgrace
p2298
aVin
p2299
aVoffice,
p2300
aVthis
p2301
aVis
p2302
aVlike
p2303
aVwinning
p2304
aVthe
p2305
aVlotto.
p2306
aVIt's
p2307
aVencouraging
p2308
aVto
p2309
aVsee
p2310
aVDemocrats
p2311
aVturning
p2312
aVinto
p2313
aVa
aVwhiny
p2314
aVsocial
p2315
aVissues
p2316
aVparty.
p2317
aVMost
p2318
aVpeople
p2319
aVvote
p2320
aVtheir
p2321
aVpocketbooks.
p2322
aV#RomneyRyan2012
p2323
aVRT
p2324
aV@AFSCME:
p2325
aVPres.
p2326
aVSaunders:
p2327
aVRomney,
p2328
aVRyan
p2329
aVMake
p2330
aVUp
p2331
aV"American
p2332
aVDream
p2333
aVDemolition
p2334
aVTeam"
p2335
aVhttp://t.co/7dRUsmM7
p2336
aV#1u
p2337
aV#p2
p2338
aV#RomneyRyan2012
p2339
aV#RR2012
p2340
aVRT
p2341
aV@andreamsaul:
p2342
aVJust
p2343
aVpassed
p2344
aV$2
p2345
aVmillion
p2346
aVraised
p2347
aVsince
p2348
aV@MittRomney
p2349
aVannounced
p2350
aV@PaulRyanVP
p2351
aV#RomneyRyan2012
p2352
aVRT
p2353
aV@Lady_Penquin:
p2354
aVNotice:
p2355
aV#RomneyRyan2012
p2356
aVtalks
p2357
aVabout
p2358
aVAmerica,
p2359
aVnot
p2360
aVgovernment,
p2361
aVnot
p2362
aVthemselves.
p2363
aVYou'll
p2364
aVsee
p2365
aVnone
p2366
aVof
p2367
aVthe
p2368
aV"I"
p2369
aVstuff,
p2370
aVlike
p2371
aVfrom
p2372
aVnarcissist
p2373
aVObama.
p2374
aV#RomneyRyan2012
p2375
aVComeback
p2376
aVTeam
p2377
aV-
aVthe
p2378
aV1950's
p2379
aVbeckon.
p2380
aV#PaulRyan
p2381
aVall
p2382
aVgrown
p2383
aVup
p2384
aVfrom
p2385
aVwhen
p2386
aVhe
p2387
aVplayed
p2388
aVEddie
p2389
aVMunster.
p2390
aVReal
p2391
aVtalk
p2392
aV#romneyryan2012
p2393
aVdebate
p2394
aVme
p2395
aVI
aVdare
p2396
aVyou
p2397
aV@MittRomney
p2398
aVgood
p2399
aVcall
p2400
aVchoosing
p2401
aV@PaulRyanVP
p2402
aVas
p2403
aVrunning
p2404
aVmate.
p2405
aV#webelieve
p2406
aVgood
p2407
aVthings
p2408
aVto
p2409
aVcome.
p2410
aVReady
p2411
aVto
p2412
aVsee
p2413
aVall
p2414
aVconcepts
p2415
aVof
p2416
aV#RomneyRyan2012
p2417
aVRT
p2418
aV@RomneyCentral:
p2419
aVRetweet
p2420
aVif
p2421
aVyou're
p2422
aVfired
p2423
aVup
p2424
aVfor
p2425
aV#RomneyRyan2012
p2426
aVGive
p2427
aVme
p2428
aVyour
p2429
aVtired,
p2430
aVyour
p2431
aVpoor,
p2432
aVyour
p2433
aVhuddled
p2434
aVmasses
p2435
aVyearning
p2436
aVto
p2437
aVbreathe
p2438
aVfree!
p2439
aV*pushes
p2440
aVthem
p2441
aVinto
p2442
aVa
aVmeat
p2443
aVgrinder*
p2444
aV#RomneyRyan2012
p2445
aVRT
p2446
aV@RepubGirlProbz:
p2447
aV#RomneyRyan2012
p2448
aV#RomneyRyan2012
p2449
aVFuck
p2450
aVMr.Romney
p2451
aV#RomneyRyan2012
p2452
aVyou
p2453
aVshould
p2454
aVsee
p2455
aVthis
p2456
aVhttp://t.co/bTCuICu2
p2457
aVhttp://t.co/yC6BLLpw
p2458
aVLooking
p2459
aVforward
p2460
aVto
p2461
aVseeing
p2462
aV@MittRomney
p2463
aVand
p2464
aV@RepPaulRyan
p2465
aValong
p2466
aVwith
p2467
aV@robportman
p2468
aVin
p2469
aVChillicothe
p2470
aVOhio
p2471
aVon
p2472
aVAug
p2473
aV14th.
p2474
aV#RomneyRyan2012
p2475
aV#tcot
p2476
aVRT
p2477
aV@SereDoc:
p2478
aVLooking
p2479
aVforward
p2480
aVto
p2481
aVa
aVBiden-Ryan
p2482
aVDebate?
p2483
aVWanna
p2484
aVbet
p2485
aVRyan
p2486
aVpick
p2487
aVhas
p2488
aVDems
p2489
aVrethinking
p2490
aVticket
p2491
aVtop
p2492
aV&amp;
p2493
aVbottom!
p2494
aV#romneyryan2012
p2495
aV#tcot
p2496
aV#teaparty
p2497
aV#p2
p2498
aVVIDEO:
p2499
aV"America
p2500
aVIs
p2501
aVBuilt
p2502
aVOn
p2503
aVPeople
p2504
aVReaching
p2505
aVFor
p2506
aVAchievement"
p2507
aVhttp://t.co/ZCNoJWIp
p2508
aV#RomneyRyan2012
p2509
aVRT
p2510
aV@TheDailyEdge:
p2511
aV#RomneyRyan2012:
p2512
aVIf
p2513
aVyou
p2514
aVdon't
p2515
aVagree
p2516
aVw/our
p2517
aVplan
p2518
aVto
p2519
aVend
p2520
aVMedicare,
p2521
aVSocial
p2522
aVSecurity
p2523
aVand
p2524
aVfood
p2525
aVstamps,
p2526
aVwe
p2527
aValso
p2528
aVhave
p2529
aVa
aVplan
p2530
aVto
p2531
aVtake
p2532
aVaway
p2533
aVyour
p2534
aVvote
p2535
aV#RomneyRyan2012"offers
p2536
aVsolutions
p2537
aVfor
p2538
aVour
p2539
aVfiscal&amp;economic
p2540
aVproblems,&amp;
p2541
aVa
aVpath
p2542
aVto
p2543
aVprosperity
p2544
aVfor
p2545
aVall
p2546
aVAmericans"http://t.co/r4rMpjg3
p2547
aV#ksgop
p2548
aV#crnc
p2549
aVMake
p2550
aVno
p2551
aVmistake:
p2552
aV#RomneyRyan2012
p2553
aVjust
p2554
aVtook
p2555
aVa
aVDIRECT
p2556
aVSHOT
p2557
aVat
p2558
aVUSA's
p2559
aVlargest
p2560
aVUnion
p2561
aV...the
p2562
aVNEA
p2563
aV2,679,396
p2564
aVTeachers/Administrators
p2565
aV#GameOn.
p2566
aVRT
p2567
aV@michellemalkin:
p2568
aVRIGHT
p2569
aVON!
p2570
aVPaul
p2571
aVRyan:
p2572
aV"We
p2573
aVwill
p2574
aVnot
p2575
aVreplace
p2576
aVour
p2577
aVfounding
p2578
aVprinciples,
p2579
aVwe
p2580
aVwill
p2581
aVreapply
p2582
aVthem."
p2583
aV#RomneyRyan2012
p2584
aVOh
p2585
aVno,
p2586
aVPaul
p2587
aVRyan,
p2588
aVthough
p2589
aVsmart,
p2590
aVhe's
p2591
aVharsh
p2592
aVand
p2593
aVcold...watch
p2594
aVout
p2595
aVunions
p2596
aVand
p2597
aVelderly.
p2598
aV#Romneyryan2012
p2599
aVCan't
p2600
aVtell
p2601
aVif
p2602
aVthe
p2603
aVDemocrats
p2604
aVcriticizing
p2605
aVPaul
p2606
aVRyan's
p2607
aVbudget
p2608
aVare
p2609
aVblatant
p2610
aVliars
p2611
aVor
p2612
aVjust
p2613
aVoblivious.
p2614
aVIt's
p2615
aVprobably
p2616
aVboth
p2617
aV#tcot
p2618
aV#RomneyRyan2012
p2619
aV#RomneyRyan2012
p2620
aVhttp://t.co/AdLSLqJX
p2621
aVRT
p2622
aV@RyanGOP:
p2623
aVRT
p2624
aV@ZekeJMiller:
p2625
aVRomney
p2626
aVcampaign
p2627
aVsays
p2628
aV8,000
p2629
aVpeople
p2630
aVhere
p2631
aVfilling
p2632
aVtwo
p2633
aVoverflow
p2634
aVareas.
p2635
aV#RomneyRyan2012
p2636
aVRep.
p2637
aVVan
p2638
aVHollen:
p2639
aV'I
p2640
aVdon't
p2641
aVthink
p2642
aVpeople
p2643
aVwant
p2644
aVto
p2645
aVgo
p2646
aVback
p2647
aVto
p2648
aVa
aVtrickle-down
p2649
aVBush
p2650
aVeconomy'
p2651
aV#RomneyRyan2012
p2652
aV#Hardball
p2653
aVRT
p2654
aV@TheDailyEdge:
p2655
aV#RomneyRyan2012:
p2656
aVIf
p2657
aVyou
p2658
aVdon't
p2659
aVagree
p2660
aVw/our
p2661
aVplan
p2662
aVto
p2663
aVend
p2664
aVMedicare,
p2665
aVSocial
p2666
aVSecurity
p2667
aVand
p2668
aVfood
p2669
aVstamps,
p2670
aVwe
p2671
aValso
p2672
aVhave
p2673
aVa
aVplan
p2674
aVto
p2675
aVtake
p2676
aVaway
p2677
aVyour
p2678
aVvote
p2679
aVRT
p2680
aV@PPact:
p2681
aV5
aVthings
p2682
aVyou
p2683
aVneed
p2684
aVto
p2685
aVknow
p2686
aVabout
p2687
aVwhere
p2688
aVPaul
p2689
aVRyan
p2690
aVstands
p2691
aVon
p2692
aVwomen's
p2693
aVhealth:
p2694
aVhttp://t.co/ELEV4rT0
p2695
aV#women2012
p2696
aV#RomneyRyan2012
p2697
aVObama
p2698
aVcampaign
p2699
aVcan
p2700
aVlie
p2701
aVabout
p2702
aVRomney,
p2703
aVBain
p2704
aV&amp;
p2705
aVRyan
p2706
aVbut
p2707
aVnot
p2708
aVabout
p2709
aVthe
p2710
aVeconomy,
p2711
aVjobs
p2712
aV&amp;
p2713
aVthe
p2714
aVdeficit.
p2715
aV#RomneyRyan2012
p2716
aV#TomCole
p2717
aV\u201c@ashley_alexxx:
p2718
aV#RomneyRyan2012\u201d
p2719
aVRT
p2720
aV@airwlf405:
p2721
aVUnless
p2722
aVyou
p2723
aVare
p2724
aVgay.
p2725
aVRight
p2726
aVMitt?
p2727
aVThen
p2728
aVthe
p2729
aVpursuit
p2730
aVof
p2731
aVhappiness
p2732
aVdoes
p2733
aVnot
p2734
aVapply.
p2735
aVHypocrite!
p2736
aV#RomneyRyan2012
p2737
aVRT
p2738
aV@airwlf405:
p2739
aVUnless
p2740
aVyou
p2741
aVare
p2742
aVgay.
p2743
aVRight
p2744
aVMitt?
p2745
aVThen
p2746
aVthe
p2747
aVpursuit
p2748
aVof
p2749
aVhappiness
p2750
aVdoes
p2751
aVnot
p2752
aVapply.
p2753
aVHypocrite!
p2754
aV#RomneyRyan2012
p2755
aVRT
p2756
aV@Ndritu_:
p2757
aVSo
p2758
aVthis
p2759
aVis
p2760
aVhow
p2761
aVthe
p2762
aVMiddle
p2763
aVClass
p2764
aVdies,
p2765
aVwith
p2766
aVthunderous
p2767
aVapplause.
p2768
aV#RomneyRyan2012
p2769
aVRT
p2770
aV@MikeDrucker:
p2771
aV"Step
p2772
aV1:
p2773
aVGet
p2774
aVold
p2775
aVpeople
p2776
aVto
p2777
aVvote
p2778
aVfor
p2779
aVus.
p2780
aVStep
p2781
aV2:
p2782
aVKill
p2783
aVold
p2784
aVpeople
p2785
aVby
p2786
aVdismantling
p2787
aVMedicare.
p2788
aVStep
p2789
aV3:
p2790
aVProfit."
p2791
aV-
aV#romneyryan2012
p2792
aV#RomneyRyan2012
p2793
aVare
p2794
aVhitting
p2795
aVthe
p2796
aVcampaign
p2797
aVtrail
p2798
aVtogether
p2799
aV#BirdsOfAFeather
p2800
aVwhat
p2801
aVa
aVbunch
p2802
aVof
p2803
aVDouchebags
p2804
aV#RomneyRyan2012
p2805
aVwatch
p2806
aVthis,
p2807
aVit's
p2808
aVamazing!
p2809
aVhttp://t.co/g6Clv2Zr
p2810
aVhttp://t.co/yDVgUl66
p2811
aVSorry,
p2812
aVbut
p2813
aVRomney
p2814
aVreally
p2815
aVshouldn't
p2816
aVbe
p2817
aVthe
p2818
aVAmerican
p2819
aVPresident.
p2820
aVJust
p2821
aVthe
p2822
aVviews
p2823
aVof
p2824
aVa
aVnon-biased
p2825
aVBritish
p2826
aVperson.
p2827
aV#RomneyRyan2012
p2828
aVRT
p2829
aV@billygreen10:
p2830
aV#RomneyRyan2012
p2831
aV\U0001f44d
p2832
aVRT
p2833
aV@L_Wheels:
p2834
aV"Our
p2835
aVrights
p2836
aVdid
p2837
aVnot
p2838
aVcome
p2839
aVfrom
p2840
aVgovernment.
p2841
aVOur
p2842
aVrights
p2843
aVcame
p2844
aVfrom
p2845
aVthe
p2846
aVCreator."
p2847
aV-
aVMitt
p2848
aVRomney
p2849
aV#RomneyRyan2012
p2850
aV#RomneyRyan2012
p2851
aVha
p2852
aVha
p2853
aVha
p2854
aVha
p2855
aVha
p2856
aVha
p2857
aVha
p2858
aVha
p2859
aVha
p2860
aVha
p2861
aVha
p2862
aVha
p2863
aVha
p2864
aVha
p2865
aVha
p2866
aVha
p2867
aVha
p2868
aVha
p2869
aVha
p2870
aVha
p2871
aVha
p2872
aVha
p2873
aVha
p2874
aVha
p2875
aVha
p2876
aVha
p2877
aVha
p2878
aVha
p2879
aVha
p2880
aVha
p2881
aVha
p2882
aVha
p2883
aVha
p2884
aVha
p2885
aVha
p2886
aVit's
p2887
aVnot
p2888
aVeven
p2889
aVfunny
p2890
aVRT
p2891
aV@MacksonJolleur
p2892
aValso
p2893
aVwomen
p2894
aVsuck
p2895
aV#romneyryan2012
p2896
aV#romneyryan2012
p2897
aVlmao
p2898
aVthis
p2899
aVmade
p2900
aVme
p2901
aVlaugh
p2902
aVidk
p2903
aVwhy
p2904
aVhttp://t.co/iOcLwyLq
p2905
aV#RomneyRyan2012
p2906
aVhow
p2907
aVcan
p2908
aVthis
p2909
aVhappen?
p2910
aVhttp://t.co/SayMYn05
p2911
aVhttp://t.co/ZXbVyOvk
p2912
aV#RomneyRyan2012
p2913
aVis
p2914
aVwrong
p2915
aV4
aVAmerica,
p2916
aVthat's
p2917
aVa
aVfact.
p2918
aVBut
p2919
aVRWNJs
p2920
aVdon't
p2921
aVneed
p2922
aVfacts
p2923
aVwhen
p2924
aVthey
p2925
aVhave
p2926
aV#Foxnews
p2927
aV|
aV#election2012
p2928
aVhttp://t.co/qdH3koeN
p2929
aV#RomneyRyan2012
p2930
aV&gt;&gt;&gt;
p2931
aVhttp://t.co/EaO0cuzs
p2932
aVhttp://t.co/k0dHPgyy
p2933
aV#RomneyRyan2012
p2934
aVwill
p2935
aVdefinitely
p2936
aVenergize
p2937
aVthe
p2938
aVbase
p2939
aVRT
p2940
aV@Reuters
p2941
aVRepublican
p2942
aVVP
p2943
aVpick
p2944
aVRyan
p2945
aVvaults
p2946
aVfrom
p2947
aVyoung
p2948
aVgun
p2949
aVto
p2950
aVtop
p2951
aVgun
p2952
aVhttp://t.co/Hd6pxy5J
p2953
aVRT
p2954
aV@BourbonAgedNeat:
p2955
aV#RomneyRyan2012
p2956
aVRT
p2957
aV@TheDemocrats:
p2958
aVPaul
p2959
aVRyan
p2960
aVsupported
p2961
aVletting
p2962
aVstates
p2963
aVprosecute
p2964
aVwomen
p2965
aVwho
p2966
aVhave
p2967
aVabortions
p2968
aVand
p2969
aVdoctors
p2970
aVwho
p2971
aVperform
p2972
aVthem.
p2973
aV#RomneyRyan2012
p2974
aVChoose.
p2975
aVYou
p2976
aVor
p2977
aVthe
p2978
aVGovernment
p2979
aVas
p2980
aVthe
p2981
aVprovider
p2982
aVand
p2983
aVprotector
p2984
aVof
p2985
aVyour
p2986
aVfamily?KNOW
p2987
aVYOUR
p2988
aVROLE.
p2989
aV#RomneyRyan2012
p2990
aVRT
p2991
aV@keder:
p2992
aVGreat
p2993
aVspeech.
p2994
aVGreat
p2995
aVrally.
p2996
aVGreat
p2997
aVticket.
p2998
aV#Mitt2012
p2999
aV#RomneyRyan2012
p3000
aVRT
p3001
aV@TheDemocrats:
p3002
aVPaul
p3003
aVRyan
p3004
aVsupported
p3005
aVletting
p3006
aVstates
p3007
aVprosecute
p3008
aVwomen
p3009
aVwho
p3010
aVhave
p3011
aVabortions
p3012
aVand
p3013
aVdoctors
p3014
aVwho
p3015
aVperform
p3016
aVthem.
p3017
aV#RomneyRyan2012
p3018
aVRT
p3019
aV@EricCantor:
p3020
aV.
aV@PaulRyanVP
p3021
aVis
p3022
aVa
aVreal
p3023
aVleader
p3024
aVfor
p3025
aVthe
p3026
aVfuture
p3027
aVof
p3028
aVour
p3029
aVcountry.
p3030
aVhttp://t.co/gg7uMACu
p3031
aV#RomneyRyan2012
p3032
aVRT
p3033
aV@conservogirl:
p3034
aV#RomneyRyan2012
p3035
aVis
p3036
aVON
p3037
aVFIRE
p3038
aVin
p3039
aVManasses,
p3040
aVVA
p3041
aV#teaparty
p3042
aV#NObamaInNOvember
p3043
aV#LetsROLLAmerica
p3044
aV#RomneyRyan2012
p3045
aV@Jwills909
p3046
aVRT
p3047
aV@keder:
p3048
aVGreat
p3049
aVspeech.
p3050
aVGreat
p3051
aVrally.
p3052
aVGreat
p3053
aVticket.
p3054
aV#Mitt2012
p3055
aV#RomneyRyan2012
p3056
aV#RomneyRyan2012
p3057
aVRT
p3058
aV@THEHermanCain:
p3059
aV"Romney/Ryan
p3060
aVRENEWAL
p3061
aVof
p3062
aVAmerica"
p3063
aVversus
p3064
aV"Obama/Biden
p3065
aVDECLINE
p3066
aVof
p3067
aVAmerica"
p3068
aV@Paulryanvp
p3069
aV#RomneyRyan2012
p3070
aV#TCOT
p3071
aVRT
p3072
aV@BorowitzReport:
p3073
aVRyan:
p3074
aVI
aVWould
p3075
aVReplace
p3076
aVSocial
p3077
aVSecurity
p3078
aVwith
p3079
aVGroupons
p3080
aV#RomneyRyan2012
p3081
aVAnd
p3082
aVI
aVdon't
p3083
aVgive
p3084
aVcredit
p3085
aVto
p3086
aVthat
p3087
aVschool
p3088
aVbus
p3089
aVdriver
p3090
aVwho
p3091
aVhas
p3092
aVa
aV100
p3093
aVmillion
p3094
aVdollar
p3095
aVIRA.
p3096
aVShow
p3097
aVus
p3098
aVthe
p3099
aVtaxes
p3100
aVMitt.
p3101
aV#RomneyRyan2012
p3102
aVRT
p3103
aV@PPact:
p3104
aVPaul
p3105
aVRyan
p3106
aVis
p3107
aVjust
p3108
aVas
p3109
aVbad
p3110
aVas
p3111
aV#Romney
p3112
aVon
p3113
aVwomen's
p3114
aVhealth.
p3115
aVTell
p3116
aV#RomneyRyan2012:
p3117
aVyou\u2019re
p3118
aVnot
p3119
aVmy
p3120
aVticket!
p3121
aVSign
p3122
aVhere:
p3123
aVhttp://t.co/E5U00CJO
p3124
aVI
aVcall
p3125
aVpresident!
p3126
aV//
p3127
aVVice
p3128
aVpresident!
p3129
aV//
p3130
aVOhhh...
p3131
aV#RomneyRyan2012
p3132
aVRT
p3133
aV@TheDemocrats:
p3134
aVPaul
p3135
aVRyan
p3136
aVsupported
p3137
aVletting
p3138
aVstates
p3139
aVprosecute
p3140
aVwomen
p3141
aVwho
p3142
aVhave
p3143
aVabortions
p3144
aVand
p3145
aVdoctors
p3146
aVwho
p3147
aVperform
p3148
aVthem.
p3149
aV#RomneyRyan2012
p3150
aVFeeling
p3151
aVgood
p3152
aVabout
p3153
aV#romneyryan2012
p3154
aV@kicci24
p3155
aVthe
p3156
aVplatform
p3157
aVof
p3158
aV#RomneyRyan2012
p3159
aVis
p3160
aVnot
p3161
aVappealing
p3162
aVand
p3163
aVits
p3164
aVnot
p3165
aVgoing
p3166
aVto
p3167
aVchange
p3168
aVanything
p3169
aVto
p3170
aVbe
p3171
aVhonest
p3172
aVgreat
p3173
aVchoice
p3174
aVfor
p3175
aVvp!
p3176
aV\u201c@MittRomney:
p3177
aVI
aVam
p3178
aVproud
p3179
aVto
p3180
aVannounce
p3181
aV@PaulRyanVP
p3182
aVas
p3183
aVmy
p3184
aVVP.
p3185
aVStand
p3186
aVwith
p3187
aVus
p3188
aVtoday.
p3189
aVhttp://t.co/W2NVEjXO
p3190
aV#RomneyRyan2012\u201d
p3191
aVRT
p3192
aV@johntolomeo:
p3193
aV#RomneyRyan2012
p3194
aVBuilding
p3195
aVa
aVcampaign
p3196
aVaround
p3197
aVan
p3198
aVout
p3199
aVof
p3200
aVcontext
p3201
aVquote.
p3202
aVShould
p3203
aVplay
p3204
aVwell
p3205
aVon
p3206
aV#FoxNews
p3207
aV,
aVbut
p3208
aVthat's
p3209
aVabout
p3210
aVit.
p3211
aV#GOPFail
p3212
aV#RomneyRyan2012
p3213
aVRT
p3214
aV@TheDemocrats:
p3215
aVPaul
p3216
aVRyan's
p3217
aVbudget
p3218
aVwould
p3219
aVend
p3220
aVMedicare
p3221
aVas
p3222
aVwe
p3223
aVknow
p3224
aVit,
p3225
aVturning
p3226
aVit
p3227
aVinto
p3228
aVa
aVvoucher
p3229
aVprogram.
p3230
aV#RomneyRyan2012
p3231
aV#RomneyRyan2012
p3232
aVis
p3233
aVit
p3234
aVme
p3235
aVor
p3236
aVare
p3237
aVthere
p3238
aVfew
p3239
aVtweets
p3240
aVsupporting
p3241
aVthese
p3242
aVtwo?
p3243
aVIt's
p3244
aVclassic.
p3245
aVPolitics
p3246
aVare
p3247
aVa
aVjoke
p3248
aVanyway,
p3249
aVtheir
p3250
aVall
p3251
aVliars
p3252
aVRT
p3253
aV@L_Wheels:
p3254
aV"Our
p3255
aVrights
p3256
aVdid
p3257
aVnot
p3258
aVcome
p3259
aVfrom
p3260
aVgovernment.
p3261
aVOur
p3262
aVrights
p3263
aVcame
p3264
aVfrom
p3265
aVthe
p3266
aVCreator."
p3267
aV-
aVMitt
p3268
aVRomney
p3269
aV#RomneyRyan2012
p3270
aV"Step
p3271
aV1:
p3272
aVGet
p3273
aVold
p3274
aVpeople
p3275
aVto
p3276
aVvote
p3277
aVfor
p3278
aVus.
p3279
aVStep
p3280
aV2:
p3281
aVKill
p3282
aVold
p3283
aVpeople
p3284
aVby
p3285
aVdismantling
p3286
aVMedicare.
p3287
aVStep
p3288
aV3:
p3289
aVProfit."
p3290
aV-
aV#romneyryan2012
p3291
aVRT
p3292
aV@jonathan9955:
p3293
aVWe
p3294
aVneed
p3295
aVa
aVlittle
p3296
aVR
aVand
p3297
aVR.
p3298
aV#RomneyRyan2012
p3299
aVRT
p3300
aV@TheDemocrats:
p3301
aVPaul
p3302
aVRyan
p3303
aVsupported
p3304
aVletting
p3305
aVstates
p3306
aVprosecute
p3307
aVwomen
p3308
aVwho
p3309
aVhave
p3310
aVabortions
p3311
aVand
p3312
aVdoctors
p3313
aVwho
p3314
aVperform
p3315
aVthem.
p3316
aV#RomneyRyan2012
p3317
aVRT
p3318
aV@leonardpierce:
p3319
aV"Fighting
p3320
aVfor
p3321
aVthe
p3322
aVFuture
p3323
aVof
p3324
aVSuper-Rich
p3325
aVHonkys"
p3326
aV#romneyryan2012
p3327
aVRyan
p3328
aVas
p3329
aVstrong
p3330
aVa
aVVP
p3331
aVchoice
p3332
aVas
p3333
aVSarah
p3334
aVPalin
p3335
aVwas.
p3336
aVBoth
p3337
aVovershadow
p3338
aVtheir
p3339
aVcandidates
p3340
aVw/extremism
p3341
aV&amp;
p3342
aValmost
p3343
aVguarantee
p3344
aVticket
p3345
aVloses.
p3346
aV#RomneyRyan2012
p3347
aVRT
p3348
aV@CallMeWEBB:
p3349
aVNot
p3350
aVsaying
p3351
aVObama
p3352
aVis
p3353
aVgreat
p3354
aVor
p3355
aVanything,
p3356
aVbut
p3357
aVhe's
p3358
aVa
aVhell
p3359
aVof
p3360
aValot
p3361
aVbetter
p3362
aVthen
p3363
aV#RomneyRyan2012
p3364
aV#JustSayin
p3365
aV#RomneyRyan2012
p3366
aVnot
p3367
aVplaying
p3368
aVaround
p3369
aVwhat-so-ever.
p3370
aVJust
p3371
aVstraight
p3372
aVup
p3373
aVlayed
p3374
aVthe
p3375
aVsmack
p3376
aVdown
p3377
aVon
p3378
aV#Obama
p3379
aVin
p3380
aVVA
p3381
aVspeech.
p3382
aV#Mitt2012
p3383
aV#JustBringIt
p3384
aVExcited
p3385
aVto
p3386
aVsee
p3387
aVwhere
p3388
aVthe
p3389
aV#RomneyRyan2012
p3390
aVcampaign
p3391
aVgoes...so
p3392
aVfar
p3393
aVI'm
p3394
aVimpressed!
p3395
aVRT
p3396
aV@Lady_Penquin:
p3397
aVNotice:
p3398
aV#RomneyRyan2012
p3399
aVtalks
p3400
aVabout
p3401
aVAmerica,
p3402
aVnot
p3403
aVgovernment,
p3404
aVnot
p3405
aVthemselves.
p3406
aVYou'll
p3407
aVsee
p3408
aVnone
p3409
aVof
p3410
aVthe
p3411
aV"I"
p3412
aVstuff,
p3413
aVlike
p3414
aVfrom
p3415
aVnarcissist
p3416
aVObama.
p3417
aVRT
p3418
aV@TeaPartyCat:
p3419
aVIn
p3420
aVcase
p3421
aVyou
p3422
aVmissed
p3423
aVits
p3424
aVsubtlety,
p3425
aVthe
p3426
aV#RomneyRyan2012
p3427
aVslogan
p3428
aV"America's
p3429
aVComeback
p3430
aVTeam"
p3431
aVmeans
p3432
aV"take
p3433
aVAmerica
p3434
aVback
p3435
aVfrom
p3436
aVthe
p3437
aVblack
p3438
aVguy."
p3439
aVRT
p3440
aV@Crunchy_K:
p3441
aV#RomneyRyan2012
p3442
aVor
p3443
aV#ObamaBiden2012
p3444
aVDoesn't
p3445
aVmatter.
p3446
aVYou're
p3447
aVbeing
p3448
aVlied
p3449
aVto
p3450
aVno
p3451
aVmatter
p3452
aVwhich
p3453
aVparty
p3454
aVyou
p3455
aVsupport
p3456
aV\U0001f60f
p3457
aV#RomneyRyan2012
p3458
aVomg
p3459
aV):!!!
p3460
aVhttp://t.co/g6Clv2Zr
p3461
aVhttp://t.co/yDVgUl66
p3462
aVRT
p3463
aV@Ndritu_:
p3464
aVSo
p3465
aVthis
p3466
aVis
p3467
aVhow
p3468
aVthe
p3469
aVMiddle
p3470
aVClass
p3471
aVdies,
p3472
aVwith
p3473
aVthunderous
p3474
aVapplause.
p3475
aV#RomneyRyan2012
p3476
aVRT
p3477
aV@RomneyCentral:
p3478
aVWOW!
p3479
aVWe've
p3480
aVadded
p3481
aV500+
p3482
aV#RomneyRyan2012
p3483
aVfollowers
p3484
aVtoday
p3485
aV--
p3486
aVnearing
p3487
aV14,000
p3488
aVtotal.
p3489
aVRetweet
p3490
aVthis
p3491
aVand
p3492
aVhelp
p3493
aVput
p3494
aVus
p3495
aVover
p3496
aVthe
p3497
aVtop!
p3498
aVRT
p3499
aV@AngeliaSC:
p3500
aVWE
p3501
aVARE
p3502
aVABOUT
p3503
aVTO
p3504
aVTAKE
p3505
aVOUR
p3506
aVCOUNTRY
p3507
aVBACK!
p3508
aVNOW
p3509
aVis
p3510
aVthe
p3511
aVtime
p3512
aVto
p3513
aVstand
p3514
aVwith
p3515
aV#RomneyRyan2012!
p3516
aVWHAT
p3517
aVA
aVgreat
p3518
aVpick!
p3519
aV@MittRomney
p3520
aV@PaulRyan2012
p3521
aVRT
p3522
aV@jakevet95:
p3523
aV#RomneyRyan2012
p3524
aVwill
p3525
aVdefeat
p3526
aVObama
p3527
aVand
p3528
aVbring
p3529
aVAmerica
p3530
aVback
p3531
aVto
p3532
aVgreatness.
p3533
aVyey
p3534
aVSOOO
p3535
aVhappy
p3536
aVthings
p3537
aVfinally
p3538
aVgo
p3539
aVright
p3540
aV#RomneyRyan2012
p3541
aV#RomneyRyan2012
p3542
aV\U0001f44d
p3543
aVRT
p3544
aV@RafalcaRomney:
p3545
aVPaul
p3546
aVRyan's
p3547
aVbudget
p3548
aVplan
p3549
aVupdate:
p3550
aVIf
p3551
aVyou
p3552
aVown
p3553
aVmore
p3554
aVthan
p3555
aVone
p3556
aVdressage
p3557
aVhorse,
p3558
aVyou
p3559
aVdon't
p3560
aVhave
p3561
aVto
p3562
aVpay
p3563
aVtaxes.
p3564
aV#RomneyRyan2012
p3565
aV#RR2012
p3566
aVRT
p3567
aV@RomneyCentral:
p3568
aVWe
p3569
aVjust
p3570
aVpassed
p3571
aV14,000
p3572
aVfollowers...
p3573
aV600+
p3574
aVtoday
p3575
aValone!
p3576
aVThe
p3577
aV#RomneyRyan2012
p3578
aVmovement
p3579
aVis
p3580
aValive
p3581
aVand
p3582
aVwell,
p3583
aVfolks!
p3584
aVThank
p3585
aVyou,
p3586
aVnew
p3587
aVfollowers!
p3588
aVIf
p3589
aVyou
p3590
aVcombine
p3591
aVthe
p3592
aVfirst
p3593
aVtwo
p3594
aVletters
p3595
aVof
p3596
aVRomney
p3597
aVand
p3598
aVRyan,
p3599
aVyou
p3600
aVget
p3601
aVRory.
p3602
aVGasp!
p3603
aVGilmore
p3604
aVGirls
p3605
aVis
p3606
aVcoming
p3607
aVback
p3608
aVon
p3609
aVthe
p3610
aVair?!
p3611
aV#p2
p3612
aV#RomneyRyan2012
p3613
aVRT
p3614
aV@leonardpierce:
p3615
aV"Protecting
p3616
aVAmerica
p3617
aVfrom
p3618
aVFiremen
p3619
aVand
p3620
aVSchoolteachers"
p3621
aV#romneyryan2012
p3622
aVRT
p3623
aV@EricCantor:
p3624
aV.
aV@PaulRyanVP
p3625
aVis
p3626
aVa
aVreal
p3627
aVleader
p3628
aVfor
p3629
aVthe
p3630
aVfuture
p3631
aVof
p3632
aVour
p3633
aVcountry.
p3634
aVhttp://t.co/gg7uMACu
p3635
aV#RomneyRyan2012
p3636
aVRT
p3637
aV@Lindsey_Alyse:
p3638
aV#RomneyRyan2012
p3639
aVAll
p3640
aVthe
p3641
aVway!!!
p3642
aVRT
p3643
aV@sloane:
p3644
aVWhy
p3645
aVis
p3646
aVit
p3647
aV@PaulRyanVP
p3648
aVand
p3649
aVnot
p3650
aV@PaulRyan?
p3651
aVThis
p3652
aVis
p3653
aVwhy.
p3654
aV#RomneyRyan2012
p3655
aVhttp://t.co/SQMumbQ6
p3656
aVOldStyle+IronHill
p3657
aVvs.
p3658
aVICED-TEA+OldMilwaukee.
p3659
aVThis
p3660
aVis
p3661
aVcloser
p3662
aV'cause
p3663
aVOS
p3664
aVis
p3665
aVpretty
p3666
aVbad.
p3667
aVStill,
p3668
aV#ObamaBiden2012
p3669
aVover
p3670
aV#RomneyRyan2012
p3671
aVby
p3672
aVa
aVhop.
p3673
aVRT
p3674
aV@AngeliaSC:
p3675
aVWE
p3676
aVARE
p3677
aVABOUT
p3678
aVTO
p3679
aVTAKE
p3680
aVOUR
p3681
aVCOUNTRY
p3682
aVBACK!
p3683
aVNOW
p3684
aVis
p3685
aVthe
p3686
aVtime
p3687
aVto
p3688
aVstand
p3689
aVwith
p3690
aV#RomneyRyan2012!
p3691
aVWHAT
p3692
aVA
aVgreat
p3693
aVpick!
p3694
aV@MittRomney
p3695
aV@PaulRyan2012
p3696
aVRT
p3697
aV@TheDemocrats:
p3698
aVPaul
p3699
aVRyan
p3700
aVsupported
p3701
aVletting
p3702
aVstates
p3703
aVprosecute
p3704
aVwomen
p3705
aVwho
p3706
aVhave
p3707
aVabortions
p3708
aVand
p3709
aVdoctors
p3710
aVwho
p3711
aVperform
p3712
aVthem.
p3713
aV#RomneyRyan2012
p3714
aVTeam
p3715
aV#RomneyRyan2012
p3716
aVwill
p3717
aVtake
p3718
aVback
p3719
aVAmerica.
p3720
aV#sgp
p3721
aV#teaparty
p3722
aV#p2
p3723
aV#gop
p3724
aV#romneyryan2012
p3725
aV#ocra
p3726
aV#asamom
p3727
aV#medicare
p3728
aV#gop
p3729
aVRT
p3730
aV@BarackProblema:
p3731
aV#RomneyRyan2012
p3732
aVIs
p3733
aVan
p3734
aVextremely
p3735
aVstrong
p3736
aVteam
p3737
aVto
p3738
aVlead
p3739
aVthe
p3740
aVcountry.
p3741
aVCompared
p3742
aVto
p3743
aVour
p3744
aVcurrent
p3745
aVdisgrace
p3746
aVin
p3747
aVoffice,
p3748
aVthis
p3749
aVis
p3750
aVlike
p3751
aVwinning
p3752
aVthe
p3753
aVlotto.
p3754
aVRT
p3755
aV@TheDemocrats:
p3756
aVPaul
p3757
aVRyan
p3758
aVsupported
p3759
aVletting
p3760
aVstates
p3761
aVprosecute
p3762
aVwomen
p3763
aVwho
p3764
aVhave
p3765
aVabortions
p3766
aVand
p3767
aVdoctors
p3768
aVwho
p3769
aVperform
p3770
aVthem.
p3771
aV#RomneyRyan2012
p3772
aVRT
p3773
aV@ChicoDelainky:
p3774
aVCongratulations
p3775
aVPresident
p3776
aVObama
p3777
aV&amp;
p3778
aVVice
p3779
aVPresident
p3780
aVBiden
p3781
aVon
p3782
aVyour
p3783
aVsecond
p3784
aVterm.
p3785
aV#RomneyRyan2012
p3786
aVRT
p3787
aV@HarperSaid:
p3788
aVDear
p3789
aV#RomneyRyan2012:
p3790
aVCollege
p3791
aVStudents,
p3792
aVGays,
p3793
aVand
p3794
aVWomen
p3795
aVare
p3796
aVvery
p3797
aVlikely
p3798
aVto
p3799
aVNOT
p3800
aVsupport
p3801
aVyour
p3802
aVcampaign.
p3803
aVOh
p3804
aVso
p3805
aVI
aVhear
p3806
aVthat
p3807
aV@MittRomney
p3808
aVdoesn't
p3809
aVeven
p3810
aVknow
p3811
aVwhat
p3812
aVjob
p3813
aVhe's
p3814
aVapplying
p3815
aVfor!
p3816
aVApparently
p3817
aVRyan
p3818
aVwill
p3819
aVbe
p3820
aVthe
p3821
aVfuture
p3822
aVPresident
p3823
aV#RomneyRyan2012
p3824
aVRT
p3825
aV@TheDailyEdge:
p3826
aV#RomneyRyan2012:
p3827
aVIf
p3828
aVyou
p3829
aVdon't
p3830
aVagree
p3831
aVw/our
p3832
aVplan
p3833
aVto
p3834
aVend
p3835
aVMedicare,
p3836
aVSocial
p3837
aVSecurity
p3838
aVand
p3839
aVfood
p3840
aVstamps,
p3841
aVwe
p3842
aValso
p3843
aVhave
p3844
aVa
aVplan
p3845
aVto
p3846
aVtake
p3847
aVaway
p3848
aVyour
p3849
aVvote
p3850
aVRT
p3851
aV@RepGwenMoore:
p3852
aVPaul
p3853
aVRyan's
p3854
aVpolicy
p3855
aVplans
p3856
aVwill
p3857
aVdismantle
p3858
aVthe
p3859
aVprogress
p3860
aVwe've
p3861
aVmade.
p3862
aVThe
p3863
aVchoice
p3864
aVis
p3865
aVclear,
p3866
aVand
p3867
aVthe
p3868
aV#RomneyRyan2012
p3869
aVticket
p3870
aVis
p3871
aVnot
p3872
aVit
p3873
aV#veep
p3874
aVRT
p3875
aV@RomneyCentral:
p3876
aVWe
p3877
aVjust
p3878
aVpassed
p3879
aV14,000
p3880
aVfollowers...
p3881
aV600+
p3882
aVtoday
p3883
aValone!
p3884
aVThe
p3885
aV#RomneyRyan2012
p3886
aVmovement
p3887
aVis
p3888
aValive
p3889
aVand
p3890
aVwell,
p3891
aVfolks!
p3892
aVThank
p3893
aVyou,
p3894
aVnew
p3895
aVfollowers!
p3896
aV#RomneyRyan2012
p3897
aV#GTFOH
p3898
aVRT
p3899
aV@bloodless_coup:
p3900
aVWait...
p3901
aV#RomneyRyan2012
p3902
aVgave
p3903
aVentire
p3904
aVspeeches
p3905
aVwith
p3906
aVNO
p3907
aVnotes
p3908
aVand
p3909
aVNO
p3910
aVteleprompter?
p3911
aVBut...
p3912
aVbut...
p3913
aVbut...
p3914
aVHow
p3915
aVdid
p3916
aVthey
p3917
aVknow
p3918
aVwhat
p3919
aVto
p3920
aVsay?
p3921
aVWhoa...
p3922
aV#RomneyRyan2012
p3923
aVThe
p3924
aVRich
p3925
aVWill
p3926
aVGet
p3927
aVRicher....The
p3928
aVMiddle
p3929
aVClass
p3930
aVWill
p3931
aVTurn
p3932
aVInto
p3933
aVThe
p3934
aVLower
p3935
aVClass
p3936
aV&amp;
p3937
aVThe
p3938
aVLower
p3939
aVClass
p3940
aVWill
p3941
aVFail
p3942
aVTo
p3943
aVExist
p3944
aVRT
p3945
aV@TheDemocrats:
p3946
aVPaul
p3947
aVRyan
p3948
aVsupported
p3949
aVletting
p3950
aVstates
p3951
aVprosecute
p3952
aVwomen
p3953
aVwho
p3954
aVhave
p3955
aVabortions
p3956
aVand
p3957
aVdoctors
p3958
aVwho
p3959
aVperform
p3960
aVthem.
p3961
aV#RomneyRyan2012
p3962
aVRT
p3963
aV@keder:
p3964
aVGreat
p3965
aVspeech.
p3966
aVGreat
p3967
aVrally.
p3968
aVGreat
p3969
aVticket.
p3970
aV#Mitt2012
p3971
aV#RomneyRyan2012
p3972
aV#RomneyRyan2012
p3973
aVwhat
p3974
aVthe
p3975
aVfuck
p3976
aVis
p3977
aVthis
p3978
aVworld
p3979
aVcoming
p3980
aVto?
p3981
aVhttp://t.co/ywGwGQBa
p3982
aVhttp://t.co/TcuUa3vl
p3983
aV#RomneyRyan2012-A
p3984
aVThing
p3985
aVLike
p3986
aVthat.
p3987
aVRT
p3988
aV@keder:
p3989
aVGreat
p3990
aVspeech.
p3991
aVGreat
p3992
aVrally.
p3993
aVGreat
p3994
aVticket.
p3995
aV#Mitt2012
p3996
aV#RomneyRyan2012
p3997
aVRT
p3998
aV@RafalcaRomney:
p3999
aVPaul
p4000
aVRyan's
p4001
aVbudget
p4002
aVplan
p4003
aVupdate:
p4004
aVIf
p4005
aVyou
p4006
aVown
p4007
aVmore
p4008
aVthan
p4009
aVone
p4010
aVdressage
p4011
aVhorse,
p4012
aVyou
p4013
aVdon't
p4014
aVhave
p4015
aVto
p4016
aVpay
p4017
aVtaxes.
p4018
aV#RomneyRyan2012
p4019
aV#RR2012
p4020
aVChuck
p4021
aVTodd:
p4022
aV#Florida
p4023
aVis
p4024
aVa
aVbigger
p4025
aVchallenge
p4026
aVfor
p4027
aVthe
p4028
aVRepublicans
p4029
aVtoday
p4030
aVthan
p4031
aVit
p4032
aVwas
p4033
aVyesterday
p4034
aV#FL
p4035
aV#RomneyRyan2012
p4036
aV#PaulRyan
p4037
aV#medicare
p4038
aV#SS
p4039
aVRT
p4040
aV@FriddleTweet:
p4041
aV.@mittromney:
p4042
aV"I
p4043
aVbelieve
p4044
aVAmerica
p4045
aVwas
p4046
aVfounded
p4047
aVon...
p4048
aVpeople
p4049
aVreaching
p4050
aVfor
p4051
aVexcellence!"
p4052
aV#RomneyRyan2012
p4053
aV#Victory2012
p4054
aVWhy,
p4055
aVyes,
p4056
aVI
aVDO
p4057
aVappeal
p4058
aVto
p4059
aVa
aVfemale
p4060
aVdemographic.
p4061
aVhttp://t.co/Cu9u4nBL
p4062
aV#RomneyRyan2012
p4063
aVhttp://t.co/FiRplYgI
p4064
aV#RomneyRyan2012
p4065
aVRT
p4066
aV@Lady_Penquin:
p4067
aVNotice:
p4068
aV#RomneyRyan2012
p4069
aVtalks
p4070
aVabout
p4071
aVAmerica,
p4072
aVnot
p4073
aVgovernment,
p4074
aVnot
p4075
aVthemselves.
p4076
aVYou'll
p4077
aVsee
p4078
aVnone
p4079
aVof
p4080
aVthe
p4081
aV"I"
p4082
aVstuff,
p4083
aVlike
p4084
aVfrom
p4085
aVnarcissist
p4086
aVObama.
p4087
aVRT
p4088
aV@OritSklar:
p4089
aVLike
p4090
aV@PaulRyanVP
p4091
aVFB
p4092
aVpage:
p4093
aVhttp://t.co/752ahJR1
p4094
aV|
aV106k
p4095
aVLikes
p4096
aVsince
p4097
aVannouncement
p4098
aV#RomneyRyan2012
p4099
aVRT
p4100
aV@RomneyCentral:
p4101
aVWOW!
p4102
aVWe've
p4103
aVadded
p4104
aV500+
p4105
aV#RomneyRyan2012
p4106
aVfollowers
p4107
aVtoday
p4108
aV--
p4109
aVnearing
p4110
aV14,000
p4111
aVtotal.
p4112
aVRetweet
p4113
aVthis
p4114
aVand
p4115
aVhelp
p4116
aVput
p4117
aVus
p4118
aVover
p4119
aVthe
p4120
aVtop!
p4121
aVRT
p4122
aV@BorowitzReport:
p4123
aVPaul
p4124
aVRyan
p4125
aVbeing
p4126
aVsworn
p4127
aVin
p4128
aVas
p4129
aVPresident
p4130
aVwould
p4131
aVbe
p4132
aVa
aVgreat
p4133
aVlast
p4134
aVscene
p4135
aVin
p4136
aVa
aVPlanet
p4137
aVof
p4138
aVthe
p4139
aVApes
p4140
aVremake.
p4141
aV#RomneyRyan2012
p4142
aVRT
p4143
aV@TheNewDeal:
p4144
aVObama
p4145
aVCut
p4146
aV$500B
p4147
aVfrom
p4148
aVWASTEFUL
p4149
aVSPENDING
p4150
aVin
p4151
aVMedicare.
p4152
aV#RomneyRyan2012
p4153
aVWant
p4154
aVto
p4155
aVGut
p4156
aVthe
p4157
aVEntire
p4158
aVProgram.
p4159
aV#Details
p4160
aV#Obama2012
p4161
aV#p2
p4162
aV#tcot
p4163
aV#romneyryan2012
p4164
aVthis
p4165
aVmade
p4166
aVme
p4167
aVlaugh.
p4168
aVcx
p4169
aVhttp://t.co/9cMWuSxN
p4170
aVRT
p4171
aVSmell
p4172
aVthe
p4173
aVdesperation
p4174
aVAFSCME
p4175
aV@AFSCME
p4176
aVPres.
p4177
aVSaunders:
p4178
aVRomney,
p4179
aVRyan
p4180
aVMake
p4181
aVUp
p4182
aV"American
p4183
aVDream
p4184
aVDemolition
p4185
aVTeam"
p4186
aV#RomneyRyan2012
p4187
aV#RR2012
p4188
aV\u201c@cswhitson:
p4189
aV#romneyryan2012\u201d
p4190
aV@stephwells
p4191
aV#RomneyRyan2012
p4192
aV&gt;&gt;&gt;
p4193
aVhttp://t.co/gC9099gJ
p4194
aVhttp://t.co/U4lZHcfq
p4195
aV#RomneyRyan2012
p4196
aV&gt;&gt;&gt;
p4197
aVhttp://t.co/gC9099gJ
p4198
aVhttp://t.co/U4lZHcfq
p4199
aVRT
p4200
aV@AngeliaSC:
p4201
aVWE
p4202
aVARE
p4203
aVABOUT
p4204
aVTO
p4205
aVTAKE
p4206
aVOUR
p4207
aVCOUNTRY
p4208
aVBACK!
p4209
aVNOW
p4210
aVis
p4211
aVthe
p4212
aVtime
p4213
aVto
p4214
aVstand
p4215
aVwith
p4216
aV#RomneyRyan2012!
p4217
aVWHAT
p4218
aVA
aVgreat
p4219
aVpick!
p4220
aV@MittRomney
p4221
aV@PaulRyan2012
p4222
aVRT
p4223
aV@BagsFoSho:
p4224
aV#RomneyRyan2012
p4225
aVwould
p4226
aVbe
p4227
aVa
aVgreat
p4228
aVticket
p4229
aVin
p4230
aVthe
p4231
aV1950's.
p4232
aVRT
p4233
aV@BarackProblema:
p4234
aV#RomneyRyan2012
p4235
aVIs
p4236
aVan
p4237
aVextremely
p4238
aVstrong
p4239
aVteam
p4240
aVto
p4241
aVlead
p4242
aVthe
p4243
aVcountry.
p4244
aVCompared
p4245
aVto
p4246
aVour
p4247
aVcurrent
p4248
aVdisgrace
p4249
aVin
p4250
aVoffice,
p4251
aVthis
p4252
aVis
p4253
aVlike
p4254
aVwinning
p4255
aVthe
p4256
aVlotto.
p4257
aVRT
p4258
aV@foxnewspolitics:
p4259
aVIn
p4260
aVrunning
p4261
aVmate
p4262
aVdebut,
p4263
aVRep.
p4264
aVRyan
p4265
aVcomes
p4266
aVout
p4267
aVswinging
p4268
aVhttp://t.co/ySaiBEHI
p4269
aV#RomneyRyan2012
p4270
aVGreat
p4271
aVspeech.
p4272
aVGreat
p4273
aVrally.
p4274
aVGreat
p4275
aVticket.
p4276
aV#Mitt2012
p4277
aV#RomneyRyan2012
p4278
aVI
aVlove
p4279
aVall
p4280
aVthe
p4281
aV"enlightened"
p4282
aVliberal
p4283
aVhate
p4284
aVon
p4285
aV#RomneyRyan2012
p4286
aVwhat
p4287
aVa
aVbunch
p4288
aVof
p4289
aVignorant
p4290
aVblowhards
p4291
aVthe
p4292
aVleft
p4293
aVis.
p4294
aVNovember
p4295
aVCrystal
p4296
aVBall:
p4297
aVFollowing
p4298
aVlandslide
p4299
aVdefeat,
p4300
aV#Romney
p4301
aVspends
p4302
aVlifetime
p4303
aVin
p4304
aVundisclosed
p4305
aVlocation.
p4306
aV#Ryan
p4307
aVbooked
p4308
aVon
p4309
aV#DWTS.
p4310
aV#romneyryan2012
p4311
aV#Fact
p4312
aV-
aV#RomneyRyan2012
p4313
aVboth
p4314
aVsupported
p4315
aVTARP
p4316
aVwhich
p4317
aVbailed
p4318
aVout
p4319
aVbanks
p4320
aVthat
p4321
aVcaused
p4322
aV2008
p4323
aVrecession,
p4324
aVyet
p4325
aVI'm
p4326
aV2
aVbelieve
p4327
aVthey'll
p4328
aVcut
p4329
aVfed
p4330
aVspending??
p4331
aVWhat
p4332
aVand
p4333
aVdo
p4334
aVa
aVportrait
p4335
aVof
p4336
aVyou?-&gt;@albz
p4337
aVThe
p4338
aVGOP
p4339
aVshould
p4340
aVjust
p4341
aVput
p4342
aVgoogly
p4343
aVeyes
p4344
aVon
p4345
aVa
aVsoggy
p4346
aVloaf
p4347
aVof
p4348
aVWonder
p4349
aVbread
p4350
aVand
p4351
aVcall
p4352
aVit
p4353
aVa
aVday.
p4354
aV#RomneyRyan2012
p4355
aVRT
p4356
aV@Mattison:
p4357
aV#RomneyRyan2012
p4358
aVwill
p4359
aVbring
p4360
aVback
p4361
aVBush
p4362
aVPolicies
p4363
aV&amp;
p4364
aVreverse
p4365
aV50
p4366
aVyears
p4367
aVof
p4368
aVwomen's
p4369
aVrights.
p4370
aVhttp://t.co/9oPPM5Vh
p4371
aV#WeWontGoBack
p4372
aV#p2
p4373
aV#tcot
p4374
aV#lnyhbt
p4375
aV#RomneyRyan2012:
p4376
aVIf
p4377
aVu
aVdon't
p4378
aVagree
p4379
aVw/our
p4380
aVplan
p4381
aVto
p4382
aVend
p4383
aVMedicare,
p4384
aVSocial
p4385
aVSecurity
p4386
aVand
p4387
aVfood
p4388
aVstamps,
p4389
aVwe
p4390
aValso
p4391
aVhave
p4392
aVa
aVplan
p4393
aVto
p4394
aVtake
p4395
aVaway
p4396
aVur
p4397
aVvote-
p4398
aVsmh
p4399
aVRT
p4400
aV@TexasLeftist:
p4401
aVA
aVvote
p4402
aVfor
p4403
aV#RomneyRyan2012
p4404
aVis
p4405
aVa
aVvote
p4406
aVfor
p4407
aVthe
p4408
aVWORST
p4409
aVCONGRESS
p4410
aVIN
p4411
aVHISTORY!!
p4412
aVInstead,
p4413
aVlet's
p4414
aV#FireBoehner,
p4415
aV#CanCantor
p4416
aVand
p4417
aV#DitchMitch
p4418
aV#uppers
p4419
aVFunny
p4420
aVhow
p4421
aVRomney
p4422
aVchose
p4423
aVthe
p4424
aVone
p4425
aVin
p4426
aVcharge
p4427
aVof
p4428
aVthe
p4429
aVmoney
p4430
aVas
p4431
aVhis
p4432
aVrunning
p4433
aVmate
p4434
aV#RomneyRyan2012
p4435
aVRT
p4436
aV@SithSarcasm:
p4437
aV#RomneyRyan2012
p4438
aVis
p4439
aVthe
p4440
aVmost
p4441
aVevil
p4442
aVduo
p4443
aVsince
p4444
aVPalpatine
p4445
aVand
p4446
aVVader.
p4447
aVSoon
p4448
aVRomney
p4449
aVwill
p4450
aVbe
p4451
aVshooting
p4452
aVlightning
p4453
aVout
p4454
aVof
p4455
aVhis
p4456
aVhands
p4457
aVRT
p4458
aV@peggiarnold:
p4459
aVFirst
p4460
aVtime
p4461
aVever
p4462
aVI'm
p4463
aVvoting
p4464
aVa
aVRepub
p4465
aV4
aVprez
p4466
aVand
p4467
aVcould
p4468
aVnot
p4469
aVbe
p4470
aVmore
p4471
aVexcited!
p4472
aV@MittRomney
p4473
aV@paulryanvp
p4474
aV#RomneyRyan2012
p4475
aV@MonicaCrowley
p4476
aV@seanhannity
p4477
aVRT
p4478
aV@MittRomney:
p4479
aVI
aVam
p4480
aVproud
p4481
aVto
p4482
aVannounce
p4483
aV@PaulRyanVP
p4484
aVas
p4485
aVmy
p4486
aVVP.
p4487
aVStand
p4488
aVwith
p4489
aVus
p4490
aVtoday.
p4491
aVhttp://t.co/0lH4WbTW
p4492
aV#RomneyRyan2012
p4493
aVRT
p4494
aV@TheDemocrats:
p4495
aVPaul
p4496
aVRyan
p4497
aVsupported
p4498
aVletting
p4499
aVstates
p4500
aVprosecute
p4501
aVwomen
p4502
aVwho
p4503
aVhave
p4504
aVabortions
p4505
aVand
p4506
aVdoctors
p4507
aVwho
p4508
aVperform
p4509
aVthem.
p4510
aV#RomneyRyan2012
p4511
aVRT
p4512
aV@Goku:
p4513
aV#GokuVegeta2012
p4514
aV&gt;
p4515
aV#RomneyRyan2012
p4516
aVThe
p4517
aVnew
p4518
aV#RomneyRyan2012
p4519
aVticket
p4520
aV#godblessamerica
p4521
aV#nofilter
p4522
aV#2legitt2mitt
p4523
aV@
aVLoy
p4524
aVHarris
p4525
aVPavilion
p4526
aVhttp://t.co/GFB5Q0Tk
p4527
aVRT
p4528
aV@Lady_Penquin:
p4529
aVNotice:
p4530
aV#RomneyRyan2012
p4531
aVtalks
p4532
aVabout
p4533
aVAmerica,
p4534
aVnot
p4535
aVgovernment,
p4536
aVnot
p4537
aVthemselves.
p4538
aVYou'll
p4539
aVsee
p4540
aVnone
p4541
aVof
p4542
aVthe
p4543
aV"I"
p4544
aVstuff,
p4545
aVlike
p4546
aVfrom
p4547
aVnarcissist
p4548
aVObama.
p4549
aV#RomneyRyan2012
p4550
aV:)
p4551
aV#RomneyRyan2012
p4552
aVor
p4553
aV#ObamaBiden2012
p4554
aVDoesn't
p4555
aVmatter.
p4556
aVYou're
p4557
aVbeing
p4558
aVlied
p4559
aVto
p4560
aVno
p4561
aVmatter
p4562
aVwhich
p4563
aVparty
p4564
aVyou
p4565
aVsupport
p4566
aV\U0001f60f
p4567
aVWith
p4568
aVthe
p4569
aVCatholic
p4570
aVchurch,
p4571
aVwomen,
p4572
aVthe
p4573
aVworking
p4574
aVclass,
p4575
aVand
p4576
aVthe
p4577
aVretired
p4578
aVagainst
p4579
aVthem
p4580
aV#RomneyRyan2012
p4581
aVdoesn't
p4582
aVstand
p4583
aVa
aVchance.
p4584
aVDream
p4585
aVon
p4586
aV#GOP.
p4587
aV#RomneyRyan2012
p4588
aVlook
p4589
aVwhat
p4590
aVhappened!
p4591
aVhttp://t.co/0l7LTGcE
p4592
aVhttp://t.co/1adPOpmI
p4593
aVLooking
p4594
aVforward
p4595
aVto
p4596
aVa
aVBiden-Ryan
p4597
aVDebate?
p4598
aVWanna
p4599
aVbet
p4600
aVRyan
p4601
aVpick
p4602
aVhas
p4603
aVDems
p4604
aVrethinking
p4605
aVticket
p4606
aVtop
p4607
aV&amp;
p4608
aVbottom!
p4609
aV#romneyryan2012
p4610
aV#tcot
p4611
aV#teaparty
p4612
aV#p2
p4613
aVRT
p4614
aV@Churific:
p4615
aVObama
p4616
aVis
p4617
aVnow
p4618
aVbeing
p4619
aVaccused
p4620
aVof
p4621
aVfathering
p4622
aVtwo
p4623
aVAfrican
p4624
aVAmerican
p4625
aVchildren
p4626
aVin
p4627
aVwed-luck.
p4628
aV#RomneyRyan2012
p4629
aVThe
p4630
aVnutcases
p4631
aV@msnbc
p4632
aVare
p4633
aVin
p4634
aVpanic
p4635
aVmode.
p4636
aVThe
p4637
aVthrill
p4638
aVup
p4639
aVChris
p4640
aVMatthews
p4641
aVleg
p4642
aVhas
p4643
aVbecome
p4644
aVa
aVtinkle.
p4645
aVLMAO
p4646
aV#RomneyRyan2012
p4647
aVHope
p4648
aVand
p4649
aVChange
p4650
aVhas
p4651
aVbecome
p4652
aVattack
p4653
aVand
p4654
aVblame,
p4655
aVCome
p4656
aVout
p4657
aVswinging,
p4658
aVI
aVlove
p4659
aVit!
p4660
aV#RomneyRyan2012
p4661
aV#RomneyRyan2012
p4662
aVMitt
p4663
aVscreams
p4664
aVwe
p4665
aVcare
p4666
aVabout
p4667
aVour
p4668
aVseniors!
p4669
aVPass
p4670
aVout
p4671
aVthe
p4672
aVvouchers
p4673
aVPaul...puleeze.
p4674
aVTICKETS
p4675
aVA
aVRomney-Ryan
p4676
aVHomecoming
p4677
aV-Sunday,
p4678
aVAugust
p4679
aV12,
p4680
aV2012
p4681
aVat
p4682
aV5:30
p4683
aVPM
p4684
aV(CDT)Waukesha,
p4685
aVWI
p4686
aVhttp://t.co/5UFlfVUG
p4687
aV#tcot
p4688
aV#teaparty
p4689
aV#RomneyRyan2012
p4690
aVSo
p4691
aVhappy
p4692
aVto
p4693
aVhave
p4694
aVcable
p4695
aVback
p4696
aVso
p4697
aVI
aVcan
p4698
aVfeed
p4699
aVmy
p4700
aVinner
p4701
aVpolitical
p4702
aVnerd.
p4703
aV#RomneyRyan2012
p4704
aVhttp://t.co/G6iiP39H
p4705
aV@RussellSimmons
p4706
aVYou
p4707
aVare
p4708
aVPATHETIC
p4709
aVJust
p4710
aVkeep
p4711
aVthe
p4712
aVRACE
p4713
aVcard
p4714
aVgoing
p4715
aVwith
p4716
aVwhite
p4717
aVHATE
p4718
aVWhat
p4719
aVa
aVshame
p4720
aV#RomneyRyan2012
p4721
aV#RomneyRyan2012
p4722
aVRT
p4723
aV@ItsOliviaSmith:
p4724
aVwishing
p4725
aVi
aVcould
p4726
aVvote
p4727
aVin
p4728
aVthis
p4729
aVelection...
p4730
aV#romneyryan2012
p4731
aV#RomneyRyan2012
p4732
aVRomney
p4733
aVhas
p4734
aVgreat
p4735
aVappeal
p4736
aVto
p4737
aVindependents
p4738
aV&amp;
p4739
aVRyan
p4740
aVreally
p4741
aVreaches
p4742
aVout
p4743
aVto
p4744
aVmiddle
p4745
aVground.
p4746
aVI'm
p4747
aVlaughing
p4748
aVso
p4749
aVmuch
p4750
aVI'm
p4751
aVcrying
p4752
aVFull
p4753
aVAttack
p4754
aVMode:
p4755
aVObama
p4756
aVTeam
p4757
aVLaunches
p4758
aVAnti-Ryan
p4759
aVAd,
p4760
aVWebsite
p4761
aV...
p4762
aVhttp://t.co/ajw1TCwT
p4763
aV#obama
p4764
aV#loveit
p4765
aV#romneyryan2012
p4766
aV(via
p4767
aV@TheMick1962)
p4768
aVRT
p4769
aV@PPact:
p4770
aV5
aVthings
p4771
aVyou
p4772
aVneed
p4773
aVto
p4774
aVknow
p4775
aVabout
p4776
aVwhere
p4777
aVPaul
p4778
aVRyan
p4779
aVstands
p4780
aVon
p4781
aVwomen's
p4782
aVhealth:
p4783
aVhttp://t.co/ELEV4rT0
p4784
aV#women2012
p4785
aV#RomneyRyan2012
p4786
aVRT
p4787
aV@RepGwenMoore:
p4788
aVTune
p4789
aVin
p4790
aVto
p4791
aV@CNN
p4792
aVto
p4793
aVwatch
p4794
aVme
p4795
aVdiscuss
p4796
aVthe
p4797
aVwrong
p4798
aVchoice
p4799
aVfor
p4800
aVAmerica:
p4801
aVthe
p4802
aV#RomneyRyan2012
p4803
aVticket
p4804
aVRT
p4805
aV@BarackProblema:
p4806
aV#RomneyRyan2012
p4807
aVIs
p4808
aVan
p4809
aVextremely
p4810
aVstrong
p4811
aVteam
p4812
aVto
p4813
aVlead
p4814
aVthe
p4815
aVcountry.
p4816
aVCompared
p4817
aVto
p4818
aVour
p4819
aVcurrent
p4820
aVdisgrace
p4821
aVin
p4822
aVoffice,
p4823
aVthis
p4824
aVis
p4825
aVlike
p4826
aVwinning
p4827
aVthe
p4828
aVlotto.
p4829
aV"@ScottKWalker:
p4830
aVSo
p4831
aVhappy
p4832
aVfor
p4833
aV@PaulRyanVP.
p4834
aVMore
p4835
aVhappy
p4836
aVfor
p4837
aVAmerica!
p4838
aV#RomneyRyan2012
p4839
aV@MittRomney"//
p4840
aVMoney!
p4841
aVRT
p4842
aV@PPact:
p4843
aV5
aVthings
p4844
aVyou
p4845
aVneed
p4846
aVto
p4847
aVknow
p4848
aVabout
p4849
aVwhere
p4850
aVPaul
p4851
aVRyan
p4852
aVstands
p4853
aVon
p4854
aVwomen's
p4855
aVhealth:
p4856
aVhttp://t.co/ELEV4rT0
p4857
aV#women2012
p4858
aV#RomneyRyan2012
p4859
aV@corn_star928
p4860
aVclassic
p4861
aVdemocrats,
p4862
aValways
p4863
aVlooking
p4864
aVfor
p4865
aVmore
p4866
aVfree
p4867
aVstuff
p4868
aVat
p4869
aVthe
p4870
aVexpense
p4871
aVof
p4872
aVhardworking
p4873
aVAmericans
p4874
aV#RomneyRyan2012
p4875
aVAre
p4876
aVyou
p4877
aVgay?
p4878
aVAre
p4879
aVyou
p4880
aVa
aVwoman?
p4881
aVAre
p4882
aVyou
p4883
aVelderly,
p4884
aVor
p4885
aVpoor?
p4886
aVIf
p4887
aVyou
p4888
aVanswered
p4889
aVyes
p4890
aVto
p4891
aVany
p4892
aVof
p4893
aVthese,
p4894
aVthen
p4895
aVPaul
p4896
aVRyan
p4897
aVhates
p4898
aVyou
p4899
aV#romneyryan2012
p4900
aVRT
p4901
aV@bloodless_coup:
p4902
aVWait...
p4903
aV#RomneyRyan2012
p4904
aVgave
p4905
aVentire
p4906
aVspeeches
p4907
aVwith
p4908
aVNO
p4909
aVnotes
p4910
aVand
p4911
aVNO
p4912
aVteleprompter?
p4913
aVBut...
p4914
aVbut...
p4915
aVbut...
p4916
aVHow
p4917
aVdid
p4918
aVthey
p4919
aVknow
p4920
aVwhat
p4921
aVto
p4922
aVsay?
p4923
aVWhoa...
p4924
aVRemember
p4925
aVwhen
p4926
aVPolitifact
p4927
aVcalled
p4928
aVDems
p4929
aVattacks
p4930
aVon
p4931
aV@PaulRyanVP's
p4932
aVMedicare
p4933
aVreform
p4934
aVthe
p4935
aV"Lie
p4936
aVof
p4937
aVthe
p4938
aVYear"?
p4939
aVhttp://t.co/ErYn404N
p4940
aV#RomneyRyan2012
p4941
aV@mittromney
p4942
aV@paulryanvp
p4943
aVBoy,
p4944
aVhas
p4945
aVAmerica
p4946
aVbeen
p4947
aVwaiting
p4948
aVto
p4949
aVhear
p4950
aVour
p4951
aVleaders
p4952
aVpraise
p4953
aVour
p4954
aVcountry
p4955
aV&amp;
p4956
aVour
p4957
aVCreator...
p4958
aVOr
p4959
aVwhat?
p4960
aV#tcot
p4961
aV#RomneyRyan2012
p4962
aVRT
p4963
aV@Baby_Cohen_:
p4964
aV#RomneyRyan2012
p4965
aVRT
p4966
aV@OritSklar:
p4967
aVLike
p4968
aV@PaulRyanVP
p4969
aVFB
p4970
aVpage:
p4971
aVhttp://t.co/752ahJR1
p4972
aV|
aV106k
p4973
aVLikes
p4974
aVsince
p4975
aVannouncement
p4976
aV#RomneyRyan2012
p4977
aVRT
p4978
aV@OritSklar:
p4979
aVLike
p4980
aV@PaulRyanVP
p4981
aVFB
p4982
aVpage:
p4983
aVhttp://t.co/752ahJR1
p4984
aV|
aV106k
p4985
aVLikes
p4986
aVsince
p4987
aVannouncement
p4988
aV#RomneyRyan2012
p4989
aVPaul
p4990
aVRyan
p4991
aVis
p4992
aVan
p4993
aVexcellent
p4994
aVVP
p4995
aVpick.
p4996
aVNice
p4997
aVjob
p4998
aVMitt.
p4999
aV#RomneyRyan2012
p5000
aVRT
p5001
aV@manassaspatch:
p5002
aVLive
p5003
aVat
p5004
aV#RomneyRyan2012
p5005
aVin
p5006
aV#Manassas:
p5007
aVMitt
p5008
aVRomney
p5009
aVpledges
p5010
aVto
p5011
aVget
p5012
aVrid
p5013
aVof
p5014
aVObamacare
p5015
aVhttp://t.co/pzJWLaZn
p5016
aV\u201c@MittRomney:
p5017
aVI
aVam
p5018
aVproud
p5019
aVto
p5020
aVannounce
p5021
aV@PaulRyanVP
p5022
aVas
p5023
aVmy
p5024
aVVP.
p5025
aVStand
p5026
aVwith
p5027
aVus
p5028
aVtoday.
p5029
aVhttp://t.co/MgXRB2h1
p5030
aV#RomneyRyan2012\u201d
p5031
aVI
aVHATE
p5032
aVYOU!!!!
p5033
aVRT
p5034
aV@TheDemocrats:
p5035
aVPaul
p5036
aVRyan
p5037
aVsupported
p5038
aVletting
p5039
aVstates
p5040
aVprosecute
p5041
aVwomen
p5042
aVwho
p5043
aVhave
p5044
aVabortions
p5045
aVand
p5046
aVdoctors
p5047
aVwho
p5048
aVperform
p5049
aVthem.
p5050
aV#RomneyRyan2012
p5051
aVFor
p5052
aVwhat
p5053
aVshall
p5054
aVit
p5055
aVprofit
p5056
aVa
aVcandidate,
p5057
aVif
p5058
aVhe
p5059
aVshall
p5060
aVgain
p5061
aVWisconsin,
p5062
aVand
p5063
aVlose
p5064
aVFlorida?
p5065
aV#RomneyRyan2012
p5066
aVRT
p5067
aV@RomneyCentral:
p5068
aV1000+
p5069
aVpeople
p5070
aVhave
p5071
aVRT'd
p5072
aVthis--&gt;
p5073
aVRT
p5074
aV@RomneyCentral:
p5075
aVRetweet
p5076
aVif
p5077
aVyou're
p5078
aVfired
p5079
aVup
p5080
aVfor
p5081
aV#RomneyRyan2012
p5082
aVRT
p5083
aV@TheDemocrats:
p5084
aVPaul
p5085
aVRyan
p5086
aVsupported
p5087
aVletting
p5088
aVstates
p5089
aVprosecute
p5090
aVwomen
p5091
aVwho
p5092
aVhave
p5093
aVabortions
p5094
aVand
p5095
aVdoctors
p5096
aVwho
p5097
aVperform
p5098
aVthem.
p5099
aV#RomneyRyan2012
p5100
aVRT
p5101
aV@MattDiamonds:
p5102
aV#RomneyRyan2012
p5103
aVBig
p5104
aVfan
p5105
aVof
p5106
aV@PaulRyanVP
p5107
aVbut
p5108
aVChristie
p5109
aVis
p5110
aVstill
p5111
aV#1
p5112
aVmy
p5113
aVbook
p5114
aV#RomneyRyan2012
p5115
aV#JerseyPride
p5116
aVRT
p5117
aV@BlueSteele18:
p5118
aV#RomneyRyan2012
p5119
aVBO
p5120
aVto
p5121
aVRyan's
p5122
aVhunting
p5123
aVpics.."you
p5124
aVdidn't
p5125
aVkill
p5126
aVthat!
p5127
aVsomeone
p5128
aVelse
p5129
aVdid!".
p5130
aV#Romney2012
p5131
aV#tcot
p5132
aV#RomneyRyan2012
p5133
aV#RomneyRyan2012
p5134
aVRT
p5135
aV@mikandynothem:
p5136
aVIf
p5137
aVyou're
p5138
aVblessed
p5139
aVwith
p5140
aVcommon
p5141
aVsense
p5142
aVbut
p5143
aVnot
p5144
aVexcited
p5145
aVabout
p5146
aVPaul
p5147
aVRyan
p5148
aVand
p5149
aV#RomneyRyan2012
p5150
aVticket,
p5151
aVyou
p5152
aVneed
p5153
aVto
p5154
aVcheck
p5155
aVyour
p5156
aVpulse!
p5157
aV#LNYHBT
p5158
aV#tcot
p5159
aVRomney
p5160
aVHood
p5161
aVand
p5162
aVLyin'
p5163
aVRyan.
p5164
aV#RomneyRyan2012
p5165
aVThe
p5166
aVbiggest
p5167
aVshit
p5168
aVtalkers
p5169
aVin
p5170
aVthe
p5171
aVworld
p5172
aV#RomneyRyan2012
p5173
aV#romneyryan2012
p5174
aVKourtney
p5175
aVKardashian
p5176
aVcought
p5177
aVhaving
p5178
aVa
aVleak
p5179
aVin
p5180
aVpublic
p5181
aVareas
p5182
aVlol
p5183
aVhttp://t.co/D0BzC2s0
p5184
aVRT
p5185
aV@TheDailyEdge:
p5186
aV#RomneyRyan2012:
p5187
aVProtecting
p5188
aVthe
p5189
aVright
p5190
aVto
p5191
aVlife
p5192
aVfor
p5193
aVfertilized
p5194
aVeggs,
p5195
aVafter
p5196
aVthat
p5197
aV#YouPeople
p5198
aVare
p5199
aVon
p5200
aVyour
p5201
aVown
p5202
aVRT
p5203
aV@Team_Romney:
p5204
aVRT
p5205
aVif
p5206
aVyou
p5207
aVsupport
p5208
aVAmerica's
p5209
aVComeback
p5210
aVTeam
p5211
aV#RomneyRyan2012
p5212
aV#RR2012
p5213
aV#Mitt2012
p5214
aV#GOP
p5215
aV#tcot
p5216
aVRT
p5217
aV@TheDemocrats:
p5218
aVPaul
p5219
aVRyan
p5220
aVsupported
p5221
aVletting
p5222
aVstates
p5223
aVprosecute
p5224
aVwomen
p5225
aVwho
p5226
aVhave
p5227
aVabortions
p5228
aVand
p5229
aVdoctors
p5230
aVwho
p5231
aVperform
p5232
aVthem.
p5233
aV#RomneyRyan2012
p5234
aVRT
p5235
aV@Lady_Penquin:
p5236
aVNotice:
p5237
aV#RomneyRyan2012
p5238
aVtalks
p5239
aVabout
p5240
aVAmerica,
p5241
aVnot
p5242
aVgovernment,
p5243
aVnot
p5244
aVthemselves.
p5245
aVYou'll
p5246
aVsee
p5247
aVnone
p5248
aVof
p5249
aVthe
p5250
aV"I"
p5251
aVstuff,
p5252
aVlike
p5253
aVfrom
p5254
aVnarcissist
p5255
aVObama.
p5256
aVRT
p5257
aV@hthoreson:
p5258
aVThe
p5259
aVattractiveness
p5260
aVof
p5261
aVthe
p5262
aV#RomneyRyan2012
p5263
aVticket
p5264
aVmust
p5265
aVbe
p5266
aVscaring
p5267
aV@BarackObama,
p5268
aVhe
p5269
aVis
p5270
aVtweeting
p5271
aVnonstop
p5272
aVabout
p5273
aV#PaulRyan
p5274
aVon
p5275
aVwomen
p5276
aVissues.
p5277
aV#tcot
p5278
aVRT
p5279
aV@mattdizwhitlock:
p5280
aVRyan:
p5281
aV"Romney
p5282
aVis
p5283
aVthe
p5284
aVkind
p5285
aVof
p5286
aVman
p5287
aVwho
p5288
aVwas
p5289
aVmade
p5290
aVfor
p5291
aVthis
p5292
aVmoment."
p5293
aV#RomneyRyan2012
p5294
aVRT
p5295
aV@DavidJWhite858:
p5296
aV#RomneyRyan2012
p5297
aVHas
p5298
aVmade
p5299
aV#ObamaBiden2012
p5300
aVThe
p5301
aVMoses
p5302
aVof
p5303
aVWomen
p5304
aVof
p5305
aVVoters.
p5306
aVThe
p5307
aVBondage
p5308
aVof
p5309
aVRomneyRyan
p5310
aVis
p5311
aVTOO
p5312
aVmuch
p5313
aVfor
p5314
aVWomen
p5315
aV#ObamaBidenAllTheWay
p5316
aVFirst
p5317
aVtime
p5318
aVever
p5319
aVI'm
p5320
aVvoting
p5321
aVa
aVRepub
p5322
aV4
aVprez
p5323
aVand
p5324
aVcould
p5325
aVnot
p5326
aVbe
p5327
aVmore
p5328
aVexcited!
p5329
aV@MittRomney
p5330
aV@paulryanvp
p5331
aV#RomneyRyan2012
p5332
aV@MonicaCrowley
p5333
aV@seanhannity
p5334
aV#RomneyRyan2012
p5335
aV&lt;
p5336
aV-
aV-
aV-why
p5337
aVis
p5338
aVthat
p5339
aVtrending
p5340
aV,
aVobama
p5341
aVis
p5342
aVstaying
p5343
aVin
p5344
aVoffice
p5345
aV#fools
p5346
aVmy
p5347
aVliberal
p5348
aVfriend
p5349
aV@lizinman21
p5350
aVjust
p5351
aVtold
p5352
aVme
p5353
aV@RepPaulRyan
p5354
aVreminds
p5355
aVher
p5356
aVof
p5357
aVme.
p5358
aV#honored
p5359
aV#tcot
p5360
aV#tlot
p5361
aV#RomneyRyan12
p5362
aV#RomneyRyan2012
p5363
aV#rr12
p5364
aVRT
p5365
aV@Norsu2:
p5366
aVBoom!
p5367
aVJust
p5368
aVpicked
p5369
aVup
p5370
aVan
p5371
aVOfficial
p5372
aV#RomneyRyan2012
p5373
aVT-Shirt!
p5374
aVhttp://t.co/I64Opv52
p5375
aVhttp://t.co/Ak2ziZRp
p5376
aV#Mitt2012
p5377
aV#tcot
p5378
aV#teaparty
p5379
aV@MittRomney
p5380
aVyou
p5381
aVmade
p5382
aVa
aVgreat
p5383
aVchoice
p5384
aVwith
p5385
aV@PaulRyanVP,
p5386
aVthank
p5387
aVyou!
p5388
aVYou've
p5389
aVmade
p5390
aVa
aVlot
p5391
aVof
p5392
aVAmericans
p5393
aVvery
p5394
aVexcited
p5395
aVtoday
p5396
aV:)
p5397
aV#RomneyRyan2012
p5398
aVRT
p5399
aV@CaliBound82:
p5400
aV#RomneyRyan2012
p5401
aVcan
p5402
aVgo
p5403
aVfuck
p5404
aVthemselves
p5405
aV#YeahISaidIt
p5406
aVRT
p5407
aV@thesavvy:
p5408
aVI'm
p5409
aVgonna
p5410
aVsay
p5411
aVit
p5412
aVbecause
p5413
aVa
aVlot
p5414
aVof
p5415
aVfemales
p5416
aVare
p5417
aVthinking
p5418
aVit:
p5419
aV#RomneyRyan2012
p5420
aVis
p5421
aVa
aVsexy
p5422
aVticket!
p5423
aV@BraveCatholic:
p5424
aVHope
p5425
aV&amp;
p5426
aVChange
p5427
aVis
p5428
aVnow
p5429
aVAttack
p5430
aV&amp;
p5431
aVBlame
p5432
aVawesome
p5433
aVquote
p5434
aVby
p5435
aV#paulryanvp
p5436
aV#RomneyRyan2012
p5437
aVPaul
p5438
aVRyan's
p5439
aVbudget
p5440
aVwould
p5441
aVend
p5442
aVMedicare
p5443
aVas
p5444
aVwe
p5445
aVknow
p5446
aVit,
p5447
aVturning
p5448
aVit
p5449
aVinto
p5450
aVa
aVvoucher
p5451
aVprogram.
p5452
aV#RomneyRyan2012
p5453
aVRT
p5454
aV@RafalcaRomney:
p5455
aVPaul
p5456
aVRyan's
p5457
aVbudget
p5458
aVplan
p5459
aVupdate:
p5460
aVIf
p5461
aVyou
p5462
aVown
p5463
aVmore
p5464
aVthan
p5465
aVone
p5466
aVdressage
p5467
aVhorse,
p5468
aVyou
p5469
aVdon't
p5470
aVhave
p5471
aVto
p5472
aVpay
p5473
aVtaxes.
p5474
aV#RomneyRyan2012
p5475
aV#RR2012
p5476
aVRT
p5477
aV@elonjames:
p5478
aVPaul
p5479
aVRyan?
p5480
aVSeriously?
p5481
aVIs
p5482
aVthe
p5483
aV#RomneyRyan2012
p5484
aVlogo
p5485
aVjust
p5486
aVgoing
p5487
aVto
p5488
aVbe
p5489
aVa
aVmiddle
p5490
aVfinger
p5491
aVwaving
p5492
aVat
p5493
aVthe
p5494
aVpoor?
p5495
aVMT
p5496
aV@CatholicDems:
p5497
aVRyan's
p5498
aVbudget
p5499
aVcuts
p5500
aVspending
p5501
aVon
p5502
aVbacks
p5503
aVof
p5504
aVmost
p5505
aVvulnerable
p5506
aVin
p5507
aVour
p5508
aVsociety
p5509
aVwhile
p5510
aVproviding
p5511
aVbreaks
p5512
aVto
p5513
aVrich.
p5514
aV#RomneyRyan2012
p5515
aV#RomneyRyan2012
p5516
aVRT
p5517
aV@ewberryman:
p5518
aVIf
p5519
aVyou
p5520
aVthink
p5521
aVyou're
p5522
aVhaving
p5523
aVa
aVbad
p5524
aVday,
p5525
aVjust
p5526
aVthink
p5527
aVof
p5528
aVJoe
p5529
aVBiden.
p5530
aVHe
p5531
aVcan
p5532
aVstart
p5533
aVhis
p5534
aVcountdown
p5535
aVto
p5536
aVhumiliation.
p5537
aV#RomneyRyan2012
p5538
aV"@andreamsaul:
p5539
aVJust
p5540
aVpassed
p5541
aV$2
p5542
aVmillion
p5543
aVraised
p5544
aVsince
p5545
aV@MittRomney
p5546
aVannounced
p5547
aV@PaulRyanVP
p5548
aV#RomneyRyan2012"
p5549
aVRT
p5550
aV@ChicoDelainky:
p5551
aVCongratulations
p5552
aVPresident
p5553
aVObama
p5554
aV&amp;
p5555
aVVice
p5556
aVPresident
p5557
aVBiden
p5558
aVon
p5559
aVyour
p5560
aVsecond
p5561
aVterm.
p5562
aV#RomneyRyan2012
p5563
aVRT
p5564
aV@mkbinla:
p5565
aV"Michelle....its
p5566
aVRosalyn,
p5567
aVshe
p5568
aVhas
p5569
aVpacking
p5570
aVtips"
p5571
aV#RomneyRyan2012
p5572
aV#HusseinIsToast
p5573
aV#ObamasEVICTED
p5574
aV@MittRomney
p5575
aV#RomneyRyan2012
p5576
aVare
p5577
aVfired
p5578
aVup!
p5579
aVGood
p5580
aVto
p5581
aVsee.
p5582
aV@Tograman
p5583
aV@Snarky_Basterd
p5584
aV@DLoesch
p5585
aV@michellemalkin
p5586
aV#tcot
p5587
aV#nobama2012
p5588
aVRT
p5589
aV@michellemalkin:
p5590
aVRIGHT
p5591
aVON!
p5592
aVPaul
p5593
aVRyan:
p5594
aV"We
p5595
aVwill
p5596
aVnot
p5597
aVreplace
p5598
aVour
p5599
aVfounding
p5600
aVprinciples,
p5601
aVwe
p5602
aVwill
p5603
aVreapply
p5604
aVthem."
p5605
aV#RomneyRyan2012
p5606
aVRT
p5607
aV@kyleraccio:
p5608
aVOur
p5609
aVrights
p5610
aVcome
p5611
aVfrom
p5612
aVGOD,
p5613
aVnot
p5614
aVfrom
p5615
aVGovernment!
p5616
aV#RomneyRyan2012
p5617
aV\u201c@Jessmine_:
p5618
aV#RomneyRyan2012?
p5619
aVWho
p5620
aVtf
p5621
aVis
p5622
aVPaul
p5623
aVRyan?
p5624
aVO_O
p5625
aVLike,
p5626
aVwhere
p5627
aVdid
p5628
aVhe
p5629
aVcome
p5630
aVfrom?\u201d
p5631
aV\u2026VP
p5632
aVcandidate.
p5633
aVThough,I\u2019m
p5634
aVnot
p5635
aVsure
p5636
aVwhat
p5637
aVstate
p5638
aVhe
p5639
aVfrom
p5640
aVReally
p5641
aVballsy
p5642
aVof
p5643
aVMitt
p5644
aVRomney
p5645
aVto
p5646
aVchoose
p5647
aVRex
p5648
aVRyan
p5649
aVas
p5650
aVhis
p5651
aVrunning
p5652
aVmate
p5653
aV#RomneyRyan2012
p5654
aVRT
p5655
aV@MikeDrucker:
p5656
aV"Step
p5657
aV1:
p5658
aVGet
p5659
aVold
p5660
aVpeople
p5661
aVto
p5662
aVvote
p5663
aVfor
p5664
aVus.
p5665
aVStep
p5666
aV2:
p5667
aVKill
p5668
aVold
p5669
aVpeople
p5670
aVby
p5671
aVdismantling
p5672
aVMedicare.
p5673
aVStep
p5674
aV3:
p5675
aVProfit."
p5676
aV-
aV#romneyryan2012
p5677
aVRT
p5678
aV@PaulRyanVP:
p5679
aVI'm
p5680
aVhonored
p5681
aVto
p5682
aVjoin
p5683
aV@MittRomney
p5684
aVon
p5685
aVAmerica's
p5686
aVComeback
p5687
aVTeam.
p5688
aVhttp://t.co/8gid73By
p5689
aV#RomneyRyan2012
p5690
aVRT
p5691
aV@Political_Bill:
p5692
aV#RomneyRyan2012
p5693
aVbecause
p5694
aVyou
p5695
aVbelieve
p5696
aVraising
p5697
aVtaxes
p5698
aVon
p5699
aVthe
p5700
aVmiddle
p5701
aVclass
p5702
aVto
p5703
aVgive
p5704
aVmore
p5705
aVtax
p5706
aVcuts
p5707
aVto
p5708
aVmillionaires
p5709
aVis
p5710
aV"the
p5711
aVright
p5712
aVthing
p5713
aVto
p5714
aVdo".
p5715
aV#RomneyRyan2012
p5716
aVlook
p5717
aVwhat
p5718
aVhappened!
p5719
aVhttp://t.co/bTCuICu2
p5720
aVhttp://t.co/yC6BLLpw
p5721
aV#RomneyRyan2012
p5722
aV-
aVFired
p5723
aVUp!
p5724
aVRT
p5725
aV@Political_Bill:
p5726
aV#RomneyRyan2012
p5727
aVbecause
p5728
aVyou
p5729
aVbelieve
p5730
aVraising
p5731
aVtaxes
p5732
aVon
p5733
aVthe
p5734
aVmiddle
p5735
aVclass
p5736
aVto
p5737
aVgive
p5738
aVmore
p5739
aVtax
p5740
aVcuts
p5741
aVto
p5742
aVmillionaires
p5743
aVis
p5744
aV"the
p5745
aVright
p5746
aVthing
p5747
aVto
p5748
aVdo".
p5749
aV#RomneyRyan2012
p5750
aVlook
p5751
aVwhat
p5752
aVhappened!
p5753
aVhttp://t.co/bTCuICu2
p5754
aVhttp://t.co/yC6BLLpw
p5755
aV#RomneyRyan2012
p5756
aV-
aVFired
p5757
aVUp!
p5758
aVRT
p5759
aV@MittRomney:
p5760
aVI
aVam
p5761
aVproud
p5762
aVto
p5763
aVannounce
p5764
aV@PaulRyanVP
p5765
aVas
p5766
aVmy
p5767
aVVP.
p5768
aVStand
p5769
aVwith
p5770
aVus
p5771
aVtoday.
p5772
aVhttp://t.co/0lH4WbTW
p5773
aV#RomneyRyan2012
p5774
aVRT@WSJ:
p5775
aVThe
p5776
aVRyan
p5777
aVVP
p5778
aVpick
p5779
aVreaction
p5780
aVon
p5781
aVTwitter
p5782
aVhttp://t.co/17Ls07Px
p5783
aV#RomneyRyan2012
p5784
aVRT
p5785
aV@PPact:
p5786
aVPaul
p5787
aVRyan
p5788
aVis
p5789
aVjust
p5790
aVas
p5791
aVbad
p5792
aVas
p5793
aV#Romney
p5794
aVon
p5795
aVwomen's
p5796
aVhealth.
p5797
aVTell
p5798
aV#RomneyRyan2012:
p5799
aVyou\u2019re
p5800
aVnot
p5801
aVmy
p5802
aVticket!
p5803
aVSign
p5804
aVhere:
p5805
aVhttp://t.co/E5U00CJO
p5806
aVNot
p5807
aVeven
p5808
aVfucking
p5809
aVyou
p5810
aVover
p5811
aVgently.
p5812
aV#RomneyRyan2012
p5813
aV#RomneyRyan2012
p5814
aVwhat
p5815
aVthe
p5816
aVfuck
p5817
aVis
p5818
aVthis
p5819
aVworld
p5820
aVcoming
p5821
aVto?
p5822
aVhttp://t.co/DsdLsyZM
p5823
aVhttp://t.co/CMy7oFJq
p5824
aVOMG
p5825
aVYES
p5826
aVPAUL
p5827
aVRYAN
p5828
aVIS
p5829
aVSO
p5830
aVGABE
p5831
aVFROM
p5832
aVTHE
p5833
aVOFFICE
p5834
aV#RomneyRyan2012
p5835
aV#Paul
p5836
aVRyan
p5837
aV#RomneyRyan2012
p5838
aVRyan
p5839
aVdefinitely
p5840
aVhelps
p5841
aVRomney...
p5842
aVI
aVjust
p5843
aVwatched
p5844
aVa
aVRomney
p5845
aVspeech,
p5846
aVthat
p5847
aVsays
p5848
aVa
aVlot
p5849
aVright
p5850
aVthere,
p5851
aVlol
p5852
aV#RomneyRyan2012
p5853
aVRT
p5854
aV@Lady_Penquin:
p5855
aVNotice:
p5856
aV#RomneyRyan2012
p5857
aVtalks
p5858
aVabout
p5859
aVAmerica,
p5860
aVnot
p5861
aVgovernment,
p5862
aVnot
p5863
aVthemselves.
p5864
aVYou'll
p5865
aVsee
p5866
aVnone
p5867
aVof
p5868
aVthe
p5869
aV"I"
p5870
aVstuff,
p5871
aVlike
p5872
aVfrom
p5873
aVnarcissist
p5874
aVObama.
p5875
aV#RomneyRyan2012
p5876
aV&lt;---
p5877
aVfags
p5878
aVRT
p5879
aV@jkhunter:
p5880
aVAMEN
p5881
aV\u201c@lovemissyxo
p5882
aV#RomneyRyan2012
p5883
aV?
aVPlease
p5884
aV.
aV#ObamaBiden2012
p5885
aVall
p5886
aVday
p5887
aV.
aV#TeamObama
p5888
aV#Obama2012\u201d
p5889
aV2
aVmuch
p5890
aVpolitical
p5891
aVopinions
p5892
aVof
p5893
aVh8
p5894
aVin
p5895
aVsocial
p5896
aVmedia.
p5897
aVAmericans
p5898
aVdon't
p5899
aVrealize
p5900
aVthat
p5901
aVthey
p5902
aVr
aVjust
p5903
aVhurting
p5904
aVeach
p5905
aVother.
p5906
aV#Election2012
p5907
aV#RomneyRyan2012
p5908
aV#RomneyRyan2012
p5909
aVPaul
p5910
aVRyan
p5911
aVis
p5912
aVa
aVfucking
p5913
aVballer
p5914
aV#RomneyRyan2012
p5915
aV#Decision2012:
p5916
aV\u2610Government
p5917
aV\u2611Private
p5918
aVSector
p5919
aV#RomneyRyan2012
p5920
aVRT
p5921
aV@Team_Romney:
p5922
aVRT
p5923
aVif
p5924
aVyou
p5925
aVsupport
p5926
aVAmerica's
p5927
aVComeback
p5928
aVTeam
p5929
aV#RomneyRyan2012
p5930
aV#RR2012
p5931
aV#Mitt2012
p5932
aV#GOP
p5933
aV#tcot
p5934
aVRT
p5935
aV@TeamRomney:
p5936
aV.@MittRomney:
p5937
aVAmerica
p5938
aVwas
p5939
aVbuilt
p5940
aVon
p5941
aVpeople
p5942
aVreaching
p5943
aVfor
p5944
aVachievement
p5945
aVhttp://t.co/7QKmkPwy
p5946
aV#RomneyRyan2012
p5947
aVRT
p5948
aV@PPact:
p5949
aV5
aVthings
p5950
aVyou
p5951
aVneed
p5952
aVto
p5953
aVknow
p5954
aVabout
p5955
aVwhere
p5956
aVPaul
p5957
aVRyan
p5958
aVstands
p5959
aVon
p5960
aVwomen's
p5961
aVhealth:
p5962
aVhttp://t.co/ELEV4rT0
p5963
aV#women2012
p5964
aV#RomneyRyan2012
p5965
aV#RomneyRyan2012:
p5966
aVTaking
p5967
aVAmerican
p5968
aVBack
p5969
aVFrom
p5970
aVThe
p5971
aVBlack
p5972
aV&amp;
p5973
aVStraight
p5974
aVInto
p5975
aVThe
p5976
aVRed!
p5977
aV#RR2012
p5978
aV#BidenDebateLines
p5979
aVManassas
p5980
aV#Obama2012
p5981
aV#Obama
p5982
aV#CTL
p5983
aV#P2
p5984
aVRT
p5985
aV@BorowitzReport:
p5986
aVPaul
p5987
aVRyan
p5988
aVbeing
p5989
aVsworn
p5990
aVin
p5991
aVas
p5992
aVPresident
p5993
aVwould
p5994
aVbe
p5995
aVa
aVgreat
p5996
aVlast
p5997
aVscene
p5998
aVin
p5999
aVa
aVPlanet
p6000
aVof
p6001
aVthe
p6002
aVApes
p6003
aVremake.
p6004
aV#RomneyRyan2012
p6005
aVRT
p6006
aV@justin_hart:
p6007
aVDang.
p6008
aVRyan
p6009
aVis
p6010
aVreally
p6011
aVgood
p6012
aVat
p6013
aVthis.
p6014
aVJust
p6015
aVa
aVnatural
p6016
aVspeaker.
p6017
aV#RomneyRyan2012
p6018
aV#RomneyRyan2012
p6019
aVRaised
p6020
aVRight
p6021
aV@ProgMuckraker
p6022
aVand
p6023
aVif
p6024
aVyou
p6025
aVthink
p6026
aVthey
p6027
aVshouldn't,
p6028
aVvote
p6029
aV#RomneyRyan2012
p6030
aVeither
p6031
aVway
p6032
aVit
p6033
aVis
p6034
aVthe
p6035
aVwise
p6036
aVchoice.
p6037
aVRT
p6038
aV@RafalcaRomney:
p6039
aVPaul
p6040
aVRyan's
p6041
aVbudget
p6042
aVplan
p6043
aVupdate:
p6044
aVIf
p6045
aVyou
p6046
aVown
p6047
aVmore
p6048
aVthan
p6049
aVone
p6050
aVdressage
p6051
aVhorse,
p6052
aVyou
p6053
aVdon't
p6054
aVhave
p6055
aVto
p6056
aVpay
p6057
aVtaxes.
p6058
aV#RomneyRyan2012
p6059
aV#RR2012
p6060
aVRT
p6061
aV@kyleraccio:
p6062
aVOur
p6063
aVrights
p6064
aVcome
p6065
aVfrom
p6066
aVGOD,
p6067
aVnot
p6068
aVfrom
p6069
aVGovernment!
p6070
aV#RomneyRyan2012
p6071
aVRT
p6072
aV@parkstorm:
p6073
aV#RomneyRyan2012
p6074
aVnow
p6075
aVin
p6076
aV#manassas
p6077
aVlying
p6078
aVlike
p6079
aVa
aVrug!
p6080
aV#president
p6081
aVObama
p6082
aVis
p6083
aVgoing
p6084
aVto
p6085
aVcream
p6086
aVthis
p6087
aVguy
p6088
aVRT
p6089
aV@MittRomney:
p6090
aVI
aVam
p6091
aVproud
p6092
aVto
p6093
aVannounce
p6094
aV@PaulRyanVP
p6095
aVas
p6096
aVmy
p6097
aVVP.
p6098
aVStand
p6099
aVwith
p6100
aVus
p6101
aVtoday.
p6102
aVhttp://t.co/0lH4WbTW
p6103
aV#RomneyRyan2012
p6104
aV#RomneyRyan2012
p6105
aVcan
p6106
aVgo
p6107
aVfuck
p6108
aVthemselves
p6109
aV#YeahISaidIt
p6110
aVRT
p6111
aV@TheDailyEdge:
p6112
aV#RomneyRyan2012:
p6113
aVIf
p6114
aVyou
p6115
aVdon't
p6116
aVagree
p6117
aVw/our
p6118
aVplan
p6119
aVto
p6120
aVend
p6121
aVMedicare,
p6122
aVSocial
p6123
aVSecurity
p6124
aVand
p6125
aVfood
p6126
aVstamps,
p6127
aVwe
p6128
aValso
p6129
aVhave
p6130
aVa
aVplan
p6131
aVto
p6132
aVtake
p6133
aVaway
p6134
aVyour
p6135
aVvote
p6136
aVRT
p6137
aV@justin_hart:
p6138
aVDang.
p6139
aVRyan
p6140
aVis
p6141
aVreally
p6142
aVgood
p6143
aVat
p6144
aVthis.
p6145
aVJust
p6146
aVa
aVnatural
p6147
aVspeaker.
p6148
aV#RomneyRyan2012
p6149
aVRT
p6150
aV@TeamBachmann:
p6151
aV#RomneyRyan2012
p6152
aVis
p6153
aVa
aVwinning
p6154
aVcombination!
p6155
aVRT
p6156
aVif
p6157
aVAmerica's
p6158
aVComeback
p6159
aVTeam
p6160
aVhas
p6161
aVyour
p6162
aVsupport.
p6163
aV#tcot
p6164
aVRT
p6165
aV@albz:
p6166
aVThe
p6167
aVGOP
p6168
aVshould
p6169
aVjust
p6170
aVput
p6171
aVgoogly
p6172
aVeyes
p6173
aVon
p6174
aVa
aVsoggy
p6175
aVloaf
p6176
aVof
p6177
aVWonder
p6178
aVbread
p6179
aVand
p6180
aVcall
p6181
aVit
p6182
aVa
aVday.
p6183
aV#RomneyRyan2012
p6184
aVRT
p6185
aV@TeaPartyCat:
p6186
aVIn
p6187
aVcase
p6188
aVyou
p6189
aVmissed
p6190
aVits
p6191
aVsubtlety,
p6192
aVthe
p6193
aV#RomneyRyan2012
p6194
aVslogan
p6195
aV"America's
p6196
aVComeback
p6197
aVTeam"
p6198
aVmeans
p6199
aV"take
p6200
aVAmerica
p6201
aVback
p6202
aVfrom
p6203
aVthe
p6204
aVblack
p6205
aVguy."
p6206
aVRT
p6207
aV@Joseph_Santoro:
p6208
aV#RomneyRyan2012:
p6209
aVYour
p6210
aVRights
p6211
aVCame
p6212
aVfrom
p6213
aVgod?!
p6214
aV#GOP
p6215
aV#TeaParty
p6216
aVno
p6217
aVpersonal
p6218
aVresponsibility?!
p6219
aVRT
p6220
aV@amaeryllis:
p6221
aVGod
p6222
aVdidn't
p6223
aVgive
p6224
aVyou
p6225
aVshit.
p6226
aV#RR2012
p6227
aVRT
p6228
aV@PPact:
p6229
aV5
aVthings
p6230
aVyou
p6231
aVneed
p6232
aVto
p6233
aVknow
p6234
aVabout
p6235
aVwhere
p6236
aVPaul
p6237
aVRyan
p6238
aVstands
p6239
aVon
p6240
aVwomen's
p6241
aVhealth:
p6242
aVhttp://t.co/ELEV4rT0
p6243
aV#women2012
p6244
aV#RomneyRyan2012
p6245
aVWell
p6246
aVI'm
p6247
aVfired
p6248
aVup!
p6249
aV#RomneyRyan2012
p6250
aVI
aVpray
p6251
aVevery
p6252
aVday
p6253
aVthat
p6254
aVRomney
p6255
aVtakes
p6256
aVthe
p6257
aVWhite
p6258
aVHouse
p6259
aVback..or
p6260
aVwe
p6261
aVwill
p6262
aVmost
p6263
aVDefinitley
p6264
aVcrash
p6265
aVand
p6266
aVburn
p6267
aVas
p6268
aVa
aVnation.
p6269
aV#RomneyRyan2012
p6270
aV#RomneyRyan2012
p6271
aVGreat
p6272
aVchoice
p6273
aVby
p6274
aVMit.
p6275
aVTime
p6276
aVto
p6277
aVrenew
p6278
aVthe
p6279
aVAmerican
p6280
aVideal
p6281
aVof
p6282
aVprosperity
p6283
aVfor
p6284
aVthose
p6285
aVwho
p6286
aVwork
p6287
aVhard
p6288
aVand
p6289
aVcommit
p6290
aVto
p6291
aVsuccess.
p6292
aV#RomneyRyan2012.
p6293
aVRT
p6294
aV@Team_Romney:
p6295
aVRT
p6296
aVif
p6297
aVyou
p6298
aVsupport
p6299
aVAmerica's
p6300
aVComeback
p6301
aVTeam
p6302
aV#RomneyRyan2012
p6303
aV#RR2012
p6304
aV#Mitt2012
p6305
aV#GOP
p6306
aV#tcot
p6307
aVRT
p6308
aV@RomneyCentral:
p6309
aVWe
p6310
aVjust
p6311
aVpassed
p6312
aV14,000
p6313
aVfollowers...
p6314
aV600+
p6315
aVtoday
p6316
aValone!
p6317
aVThe
p6318
aV#RomneyRyan2012
p6319
aVmovement
p6320
aVis
p6321
aValive
p6322
aVand
p6323
aVwell,
p6324
aVfolks!
p6325
aVThank
p6326
aVyou,
p6327
aVnew
p6328
aVfollowers!
p6329
aV#romneyryan2012
p6330
aVLmfao
p6331
aVthis
p6332
aVmade
p6333
aVme
p6334
aVlaugh
p6335
aV??
p6336
aVhttp://t.co/ft3J9aSG
p6337
aVNotice:
p6338
aV#RomneyRyan2012
p6339
aVtalks
p6340
aVabout
p6341
aVAmerica,
p6342
aVnot
p6343
aVgovernment,
p6344
aVnot
p6345
aVthemselves.
p6346
aVYou'll
p6347
aVsee
p6348
aVnone
p6349
aVof
p6350
aVthe
p6351
aV"I"
p6352
aVstuff,
p6353
aVlike
p6354
aVfrom
p6355
aVnarcissist
p6356
aVObama.
p6357
aVRT
p6358
aV@ZacMoffatt:
p6359
aVPHOTO:
p6360
aVGreat
p6361
aVcrowd
p6362
aVin
p6363
aVManassas,
p6364
aVVA
p6365
aVfor
p6366
aV@MittRomney
p6367
aV&amp;
p6368
aV@PaulRyanVP
p6369
aV#RomneyRyan2012
p6370
aVhttp://t.co/aVmrsLoo
p6371
aVRT
p6372
aV@go2guile:
p6373
aVPaul
p6374
aVRyan's
p6375
aVAusterity
p6376
aVfor
p6377
aVMore!
p6378
aV#romneyryan2012
p6379
aV#mitt
p6380
aV#romney
p6381
aV#ows
p6382
aV#occupy
p6383
aV#newsroom
p6384
aV#edshow
p6385
aV#p2
p6386
aV#gop
p6387
aV#dnc
p6388
aV#tlot
p6389
aV#ryan
p6390
aVhttp://t.co/Fbnh1GRK
p6391
aVRT
p6392
aV@BorowitzReport:
p6393
aVPaul
p6394
aVRyan
p6395
aVbeing
p6396
aVsworn
p6397
aVin
p6398
aVas
p6399
aVPresident
p6400
aVwould
p6401
aVbe
p6402
aVa
aVgreat
p6403
aVlast
p6404
aVscene
p6405
aVin
p6406
aVa
aVPlanet
p6407
aVof
p6408
aVthe
p6409
aVApes
p6410
aVremake.
p6411
aV#RomneyRyan2012
p6412
aVRT
p6413
aV@edhaskl:
p6414
aV#RomneyRyan2012
p6415
aVThe
p6416
aVsuppress
p6417
aVthe
p6418
aVvote
p6419
aVbuy
p6420
aVthe
p6421
aVelection
p6422
aVtag
p6423
aVteam!
p6424
aVPres.
p6425
aVSaunders:
p6426
aVRomney,
p6427
aVRyan
p6428
aVMake
p6429
aVUp
p6430
aV"American
p6431
aVDream
p6432
aVDemolition
p6433
aVTeam"
p6434
aVhttp://t.co/7dRUsmM7
p6435
aV#1u
p6436
aV#p2
p6437
aV#RomneyRyan2012
p6438
aV#RR2012
p6439
aVRomney
p6440
aVis
p6441
aVfired
p6442
aVup
p6443
aVin
p6444
aVManassass!
p6445
aVHe
p6446
aVis
p6447
aVstarting
p6448
aVto
p6449
aVlay
p6450
aVout
p6451
aVhis
p6452
aVspecifics.
p6453
aVI
aVam
p6454
aVfired
p6455
aVup
p6456
aVnow!
p6457
aV#RR2012
p6458
aV#RomneyRyan2012
p6459
aV#lnyhbt
p6460
aVWait...
p6461
aV#RomneyRyan2012
p6462
aVgave
p6463
aVentire
p6464
aVspeeches
p6465
aVwith
p6466
aVNO
p6467
aVnotes
p6468
aVand
p6469
aVNO
p6470
aVteleprompter?
p6471
aVBut...
p6472
aVbut...
p6473
aVbut...
p6474
aVHow
p6475
aVdid
p6476
aVthey
p6477
aVknow
p6478
aVwhat
p6479
aVto
p6480
aVsay?
p6481
aVWhoa...
p6482
aVRT
p6483
aV@Mooneybe:
p6484
aV#RomneyRyan2012
p6485
aVhas
p6486
aVbeen
p6487
aVtop
p6488
aVtrend
p6489
aVin
p6490
aVUSA
p6491
aVfor
p6492
aVthe
p6493
aVwhole
p6494
aVday.
p6495
aVPeople
p6496
aVare
p6497
aVexcited
p6498
aVabout
p6499
aVthis
p6500
aVelection
p6501
aVRT
p6502
aV@RomneyCentral:
p6503
aVWatch
p6504
aVfinal
p6505
aV#RomneyRyan2012
p6506
aVLIVE
p6507
aVevent
p6508
aVfrom
p6509
aVVirginia
p6510
aVhere:
p6511
aVhttp://t.co/vDX7ffFQ
p6512
aV#Mitt2012
p6513
aV#RomneyRyan2012
p6514
aV-
aVStart
p6515
aVYour
p6516
aVEngines
p6517
aV.@whisper1111
p6518
aV...ignore
p6519
aVthe
p6520
aV#medicare
p6521
aVcuts
p6522
aVbehind
p6523
aVthe
p6524
aVcurtain!
p6525
aV#RomneyRyan2012
p6526
aV#WizardOfOz
p6527
aVHa..delusion
p6528
aVis
p6529
aVa
aVbitch!
p6530
aVRT
p6531
aV@tayloral3xandra
p6532
aV#RomneyRyan2012
p6533
aVis
p6534
aVtrending.
p6535
aVUm
p6536
aVwhy?
p6537
aVIt
p6538
aVshould
p6539
aVbe
p6540
aV#Obama2012
p6541
aVinstead.
p6542
aVRT
p6543
aV@BarackProblema:
p6544
aV#RomneyRyan2012
p6545
aVIs
p6546
aVan
p6547
aVextremely
p6548
aVstrong
p6549
aVteam
p6550
aVto
p6551
aVlead
p6552
aVthe
p6553
aVcountry.
p6554
aVCompared
p6555
aVto
p6556
aVour
p6557
aVcurrent
p6558
aVdisgrace
p6559
aVin
p6560
aVoffice,
p6561
aVthis
p6562
aVis
p6563
aVlike
p6564
aVwinning
p6565
aVthe
p6566
aVlotto.
p6567
aVRT
p6568
aV@RepGwenMoore:
p6569
aVTune
p6570
aVin
p6571
aVto
p6572
aV@CNN
p6573
aVto
p6574
aVwatch
p6575
aVme
p6576
aVdiscuss
p6577
aVthe
p6578
aVwrong
p6579
aVchoice
p6580
aVfor
p6581
aVAmerica:
p6582
aVthe
p6583
aV#RomneyRyan2012
p6584
aVticket
p6585
aVRT
p6586
aV@TheDemocrats:
p6587
aVPaul
p6588
aVRyan
p6589
aVsupported
p6590
aVletting
p6591
aVstates
p6592
aVprosecute
p6593
aVwomen
p6594
aVwho
p6595
aVhave
p6596
aVabortions
p6597
aVand
p6598
aVdoctors
p6599
aVwho
p6600
aVperform
p6601
aVthem.
p6602
aV#RomneyRyan2012
p6603
aVRT
p6604
aV@PaulRyanVP:
p6605
aVI'm
p6606
aVhonored
p6607
aVto
p6608
aVjoin
p6609
aV@MittRomney
p6610
aVon
p6611
aVAmerica's
p6612
aVComeback
p6613
aVTeam.
p6614
aVhttp://t.co/8gid73By
p6615
aV#RomneyRyan2012
p6616
aVRT
p6617
aV@ResistTyranny:
p6618
aVImagine
p6619
aVwhat
p6620
aVit
p6621
aVwill
p6622
aVbe
p6623
aVlike
p6624
aVin
p6625
aV2013
p6626
aVwhen
p6627
aVFederal
p6628
aVgov't
p6629
aVstops
p6630
aVsuing
p6631
aVstates
p6632
aVfor
p6633
aVupholding
p6634
aVthe
p6635
aVlaw.
p6636
aV#tcot
p6637
aV#RomneyRyan2012
p6638
aVRT
p6639
aV@LiterallyFedUp:
p6640
aV#RomneyRyan2012
p6641
aV-
aVMaking
p6642
aVAmerica
p6643
aVProud
p6644
aVOnce
p6645
aVAgain
p6646
aVRT
p6647
aV@ChicoDelainky:
p6648
aVCongratulations
p6649
aVPresident
p6650
aVObama
p6651
aV&amp;
p6652
aVVice
p6653
aVPresident
p6654
aVBiden
p6655
aVon
p6656
aVyour
p6657
aVsecond
p6658
aVterm.
p6659
aV#RomneyRyan2012
p6660
aV#RomneyRyan2012
p6661
aVwill
p6662
aVdefeat
p6663
aVObama
p6664
aVand
p6665
aVbring
p6666
aVAmerica
p6667
aVback
p6668
aVto
p6669
aVgreatness.
p6670
aVWhat
p6671
aVa
aVspeech
p6672
aVby
p6673
aV#RomneyRyan2012
p6674
aVin
p6675
aVManasses.
p6676
aVRT
p6677
aV@PPact:
p6678
aV5
aVthings
p6679
aVyou
p6680
aVneed
p6681
aVto
p6682
aVknow
p6683
aVabout
p6684
aVwhere
p6685
aVPaul
p6686
aVRyan
p6687
aVstands
p6688
aVon
p6689
aVwomen's
p6690
aVhealth:
p6691
aVhttp://t.co/ELEV4rT0
p6692
aV#women2012
p6693
aV#RomneyRyan2012
p6694
aVRT
p6695
aV@WSJ:
p6696
aVThe
p6697
aVRyan
p6698
aVVP
p6699
aVpick
p6700
aVreaction
p6701
aVon
p6702
aVTwitter
p6703
aVhttp://t.co/mbV2kN5G
p6704
aV#RomneyRyan2012
p6705
aV.@mittromney
p6706
aVjust
p6707
aVspoke
p6708
aVpassionately
p6709
aVabout
p6710
aVour
p6711
aVcountry.
p6712
aV@barackobama
p6713
aVspeaks
p6714
aVpassionately
p6715
aVabout
p6716
aVonly
p6717
aVthing:
p6718
aVhimself.
p6719
aV#RomneyRyan2012
p6720
aV#tcot
p6721
aVS/O
p6722
aVto
p6723
aVeveryone
p6724
aVin
p6725
aVthe
p6726
aVUS
p6727
aVwho
p6728
aVis
p6729
aVfor
p6730
aV#RomneyRyan2012
p6731
aVwhen
p6732
aVRyan
p6733
aVwants
p6734
aVto
p6735
aVban
p6736
aVbirth
p6737
aVcontrol.
p6738
aV#RomneyRyan2012?
p6739
aVWho
p6740
aVtf
p6741
aVis
p6742
aVPaul
p6743
aVRyan?
p6744
aVO_O
p6745
aVLike,
p6746
aVwhere
p6747
aVdid
p6748
aVhe
p6749
aVcome
p6750
aVfrom?
p6751
aVRT
p6752
aV@BorowitzReport:
p6753
aVPaul
p6754
aVRyan
p6755
aVbeing
p6756
aVsworn
p6757
aVin
p6758
aVas
p6759
aVPresident
p6760
aVwould
p6761
aVbe
p6762
aVa
aVgreat
p6763
aVlast
p6764
aVscene
p6765
aVin
p6766
aVa
aVPlanet
p6767
aVof
p6768
aVthe
p6769
aVApes
p6770
aVremake.
p6771
aV#RomneyRyan2012
p6772
aVRT
p6773
aV@RomneyCentral:
p6774
aVRetweet
p6775
aVif
p6776
aVyou're
p6777
aVfired
p6778
aVup
p6779
aVfor
p6780
aV#RomneyRyan2012
p6781
aVRT
p6782
aV@BarackProblema:
p6783
aV#RomneyRyan2012
p6784
aVIs
p6785
aVan
p6786
aVextremely
p6787
aVstrong
p6788
aVteam
p6789
aVto
p6790
aVlead
p6791
aVthe
p6792
aVcountry.
p6793
aVCompared
p6794
aVto
p6795
aVour
p6796
aVcurrent
p6797
aVdisgrace
p6798
aVin
p6799
aVoffice,
p6800
aVthis
p6801
aVis
p6802
aVlike
p6803
aVwinning
p6804
aVthe
p6805
aVlotto.
p6806
aV#RomneyRyan2012
p6807
aVwould
p6808
aVbe
p6809
aVa
aVgreat
p6810
aVticket
p6811
aVin
p6812
aVthe
p6813
aV1950's.
p6814
aVRT
p6815
aV@bigbrogdog01:
p6816
aV#RomneyRyan2012
p6817
aV"America
p6818
aVwas
p6819
aVfounded
p6820
aVon
p6821
aVthe
p6822
aVprinciple
p6823
aVthat
p6824
aVpeople's
p6825
aVrights
p6826
aVdon't
p6827
aVcome
p6828
aVfrom
p6829
aVgovernment;
p6830
aVtheir
p6831
aVrights
p6832
aVcome
p6833
aVfrom
p6834
aVthe
p6835
aVCreator!!"
p6836
aV#RomneyRyan2012
p6837
aVSo
p6838
aVthis
p6839
aVis
p6840
aVhow
p6841
aVthe
p6842
aVMiddle
p6843
aVClass
p6844
aVdies,
p6845
aVwith
p6846
aVthunderous
p6847
aVapplause.
p6848
aV#RomneyRyan2012
p6849
aVWell,
p6850
aVthat
p6851
aVsounds
p6852
aVlike
p6853
aVsound
p6854
aVlogic
p6855
aVto
p6856
aVme!
p6857
aV#RomneyRyan2012
p6858
aV#sarcasm
p6859
aVhttp://t.co/fdnnS1Uj
p6860
aVRomney
p6861
aVis
p6862
aVmore
p6863
aVpassionate
p6864
aVthan
p6865
aVI've
p6866
aVever
p6867
aVseen
p6868
aVhim.
p6869
aVPicking
p6870
aVRyan
p6871
aVhas
p6872
aVinvigorated
p6873
aVhim
p6874
aV&amp;
p6875
aVhis
p6876
aVcampaign.
p6877
aV#RomneyRyan2012
p6878
aVRT
p6879
aV@THEHermanCain:
p6880
aV"Romney/Ryan
p6881
aVRENEWAL
p6882
aVof
p6883
aVAmerica"
p6884
aVversus
p6885
aV"Obama/Biden
p6886
aVDECLINE
p6887
aVof
p6888
aVAmerica"
p6889
aV@Paulryanvp
p6890
aV#RomneyRyan2012
p6891
aV#TCOT
p6892
aV#RomneyRyan2012
p6893
aV-
aVLet
p6894
aVThe
p6895
aVGames
p6896
aVBegin
p6897
aVRT
p6898
aV@elonjames:
p6899
aVPaul
p6900
aVRyan?
p6901
aVSeriously?
p6902
aVIs
p6903
aVthe
p6904
aV#RomneyRyan2012
p6905
aVlogo
p6906
aVjust
p6907
aVgoing
p6908
aVto
p6909
aVbe
p6910
aVa
aVmiddle
p6911
aVfinger
p6912
aVwaving
p6913
aVat
p6914
aVthe
p6915
aVpoor?
p6916
aVRT
p6917
aV@THEHermanCain:
p6918
aV"Romney/Ryan
p6919
aVRENEWAL
p6920
aVof
p6921
aVAmerica"
p6922
aVversus
p6923
aV"Obama/Biden
p6924
aVDECLINE
p6925
aVof
p6926
aVAmerica"
p6927
aV@Paulryanvp
p6928
aV#RomneyRyan2012
p6929
aV#TCOT
p6930
aVRT
p6931
aV@TheDemocrats:
p6932
aVPaul
p6933
aVRyan
p6934
aVsupported
p6935
aVletting
p6936
aVstates
p6937
aVprosecute
p6938
aVwomen
p6939
aVwho
p6940
aVhave
p6941
aVabortions
p6942
aVand
p6943
aVdoctors
p6944
aVwho
p6945
aVperform
p6946
aVthem.
p6947
aV#RomneyRyan2012
p6948
aVDubya
p6949
aVcalled
p6950
aVPaul
p6951
aVRyan
p6952
aV"a
p6953
aVstrong
p6954
aVpick."
p6955
aVSame
p6956
aVanswer
p6957
aVhe
p6958
aVgave
p6959
aVwhen
p6960
aVasked
p6961
aVwhat
p6962
aVhe
p6963
aVfelt
p6964
aVwhen
p6965
aVhe
p6966
aVchoked
p6967
aVon
p6968
aVa
aVpretzel
p6969
aV#GeorgeWBush
p6970
aV#RomneyRyan2012
p6971
aVRT
p6972
aV@clairemccarth:
p6973
aV\u201c@BarackObama:
p6974
aVFACT:
p6975
aVPaul
p6976
aVRyan
p6977
aVwould
p6978
aVban
p6979
aVall
p6980
aVabortions."
p6981
aVThanks,
p6982
aVMr.
p6983
aVPresident,
p6984
aVI'll
p6985
aVvote
p6986
aV#RomneyRyan2012!
p6987
aV#prolife
p6988
aVRT
p6989
aV@ChicoDelainky:
p6990
aVCongratulations
p6991
aVPresident
p6992
aVObama
p6993
aV&amp;
p6994
aVVice
p6995
aVPresident
p6996
aVBiden
p6997
aVon
p6998
aVyour
p6999
aVsecond
p7000
aVterm.
p7001
aV#RomneyRyan2012
p7002
aVRT
p7003
aV@conservogirl:
p7004
aV#RomneyRyan2012
p7005
aVis
p7006
aVON
p7007
aVFIRE
p7008
aVin
p7009
aVManasses,
p7010
aVVA
p7011
aV#teaparty
p7012
aV#NObamaInNOvember
p7013
aV#LetsROLLAmerica
p7014
aV#RomneyRyan2012
p7015
aVHAHA
p7016
aVNO.
p7017
aVpumped
p7018
aVup
p7019
aVspeeches
p7020
aVby
p7021
aVRomney
p7022
aVand
p7023
aVRyan
p7024
aVin
p7025
aVMananas
p7026
aVand
p7027
aVno
p7028
aVteleprompter.
p7029
aV#romneyryan2012
p7030
aVRT
p7031
aV@TheDemocrats:
p7032
aVPaul
p7033
aVRyan
p7034
aVsupported
p7035
aVletting
p7036
aVstates
p7037
aVprosecute
p7038
aVwomen
p7039
aVwho
p7040
aVhave
p7041
aVabortions
p7042
aVand
p7043
aVdoctors
p7044
aVwho
p7045
aVperform
p7046
aVthem.
p7047
aV#RomneyRyan2012
p7048
aVRT
p7049
aV@ManassasPatch:
p7050
aVAt
p7051
aV#RomneyRyan2012
p7052
aVrally
p7053
aVin
p7054
aV#Manassas,
p7055
aVPaul
p7056
aVRyan
p7057
aVsays
p7058
aVAmerica
p7059
aVhas
p7060
aV"worst
p7061
aVrecovery
p7062
aVin
p7063
aV70
p7064
aVyears"
p7065
aVhttp://t.co/XpG31TVb
p7066
aV@PatchPolitics
p7067
aVRT
p7068
aV@unkybunky:
p7069
aVWhat's
p7070
aVit
p7071
aVcalled
p7072
aVagain?
p7073
aV#americascouponteam?
p7074
aV#romneyryan2012
p7075
aVChris
p7076
aVMatthews
p7077
aVsays
p7078
aVhe
p7079
aVimpressed
p7080
aVno
p7081
aVteleprompters
p7082
aVwere
p7083
aVused
p7084
aVtoday....we
p7085
aVdon't
p7086
aVneed
p7087
aVthem.
p7088
aVWe're
p7089
aVhonest
p7090
aVand
p7091
aVspeak
p7092
aVthe
p7093
aVtruth!#RomneyRyan2012
p7094
aVRT
p7095
aV@allwithhope:
p7096
aVGood
p7097
aVGod,
p7098
aVby
p7099
aVthe
p7100
aVlooks
p7101
aVof
p7102
aVmy
p7103
aVfeed,
p7104
aVwe
p7105
aV*are*
p7106
aVfired
p7107
aVup.
p7108
aV#ObamaBiden2012
p7109
aVcrush
p7110
aV#RomneyRyan2012
p7111
aV\u201cThe
p7112
aVpope
p7113
aVwas
p7114
aVreally
p7115
aVclear"
p7116
aVon
p7117
aVthe
p7118
aVglobal
p7119
aVdebt
p7120
aVproblem,
p7121
aVsaid
p7122
aVRep.
p7123
aVPaul
p7124
aVRyan
p7125
aVin
p7126
aVApril
p7127
aVinterview.
p7128
aVhttp://t.co/DjfboNys
p7129
aV#RomneyRyan2012
p7130
aV#RomneyRyan2012
p7131
aVill
p7132
aVdie
p7133
aVyou
p7134
aVthese
p7135
aVtwo
p7136
aVguys
p7137
aVget
p7138
aVin
p7139
aVthe
p7140
aVwhite
p7141
aVhouse
p7142
aVRT
p7143
aV@THEHermanCain:
p7144
aV"Romney/Ryan
p7145
aVRENEWAL
p7146
aVof
p7147
aVAmerica"
p7148
aVversus
p7149
aV"Obama/Biden
p7150
aVDECLINE
p7151
aVof
p7152
aVAmerica"
p7153
aV@Paulryanvp
p7154
aV#RomneyRyan2012
p7155
aV#TCOT
p7156
a.(lp1
VTeam #RomneyRyan2012 will take back America... from the people.
p2
aVRT @PaulRyanVP: I'm honored to join @MittRomney on America's Comeback Team. http://t.co/8gid73By #RomneyRyan2012
p3
aVRT @RomneyCentral: Retweet if you're fired up for #RomneyRyan2012
p4
aVRT @hardball: Rep. Van Hollen: 'I don't think people want to go back to a trickle-down Bush economy' #RomneyRyan2012 #Hardball
p5
aVRT @Lady_Penquin: Notice: #RomneyRyan2012 talks about America, not government, not themselves.  You'll see none of the "I" stuff, like from narcissist Obama.
p6
aVLooking forward to watching @PaulRyanVP debate Joe Biden. Let's get this economy growing again #RomneyRyan2012 #entrepreneur
p7
aV#RomneyRyan2012 time for a new president.
p8
aVhttp://t.co/7VWFCDxr\u000a#WeBuiltIt #RomneyRyan2012
p9
aVRomney: Obama cut Medicare by $750B! We will restore, retain and protect  Medicare. If lying was a crime #RomneyRyan2012 'd be on death row.
p10
aVPaul Ryan used to receive social security payments, a fact that mysteriously vanished from his Wikipedia entry today #romneyryan2012
p11
aV#romneyryan2012 hahahaha idk you but this made me laugh so hard http://t.co/U3vrxHZB
p12
aVPaul Ryan is to Politics what Stonehenge is to rocks..................USELESS!       #RomneyRyan2012
p13
aVRT @AFSCME: Pres. Saunders: Romney, Ryan Make Up "American Dream Demolition Team" http://t.co/7dRUsmM7 #1u #p2 #RomneyRyan2012 #RR2012
p14
aV#RomneyRyan2012: "If you have a small business, you DID build that!" #nowwatching http://t.co/j3s1BYxG
p15
aVRT @Bristel: Hey girl... It's Paul Ryan. Literally! #RomneyRyan2012
p16
aV@GreedyOldPricks You didn't write that. Someone else made that desperate snark happen. #RomneyRyan2012
p17
aVRT @RomneyCentral: Retweet if you're fired up for #RomneyRyan2012
p18
aVRT @peggiarnold: First time ever I'm voting a Repub 4 prez and could not be more excited! @MittRomney @paulryanvp #RomneyRyan2012 @MonicaCrowley @seanhannity
p19
aVIs it the Fascist party, or the Republican party? I can't tell the difference.  #RomneyRyan2012
p20
aVRT @drcamey: Obama campaign can lie about Romney, Bain &amp; Ryan but not about the economy, jobs &amp; the deficit. #RomneyRyan2012  #TomCole
p21
aVRT @current: Well said, Mr. President! \u201c@BarackObama: We won\u2019t go back: http://t.co/J0Pf4qG9\u201d #RomneyRyan2012
p22
aVRT @BorowitzReport: Ryan: Trillions Could Be Cut from Budget if We Eliminate Empathy #RomneyRyan2012
p23
aV@AJReh: #RomneyRyan2012 will literally put America in the stone age; for women, for liberties and the economy. \u000a#unfitMitt #obama2012
p24
aV#RomneyRyan2012 Fuck Obama
p25
aVRT @TeDeumBlog: Debunking myth that Paul Ryan is an Ayn Rand devotee. http://t.co/gvveVlgG @CatholicVote #PaulRyan  #RomneyRyan2012
p26
aVHas any government official ever turned out worth a dam outta Illinois #RomneyRyan2012
p27
aVRT @borowitzreport: Ryan: Trillions Could Be Cut from Budget if We Eliminate Empathy #RomneyRyan2012
p28
aVRT @KlassyFucker: "2 R's Can't Make it Right" #RomneyRyan2012 slogans
p29
aVWow, that's the 2nd time today #RomneyRyan2012 has made a reference to God and law/rights. New direction for the campaign? @LukeRussert
p30
aV#RomneyRyan2012 Romney must not want us to discuss the economy anymore since we'll be busy talking about grandma starving in the street.
p31
aVwe're thrilled too :)) \u201c@PaulRyanVP: I'm honored to join @MittRomney on America's Comeback Team. http://t.co/AAEcH0l2 #RomneyRyan2012\u201d
p32
aV#RomneyRyan2012 just seen tv footage. romney couldn't even get ryan's possible job title right. 'next president of united states'. duh!
p33
aV#RomneyRyan2012 has zero damn chance. I'm so embarassed with the republican party as a whole.
p34
aVRT @TheDailyEdge: #RomneyRyan2012: If you don't agree w/our plan to end Medicare, Social Security and food stamps, we also have a plan to take away your vote
p35
aVRT @PaulRyanVP: I'm honored to join @MittRomney on America's Comeback Team. http://t.co/8gid73By #RomneyRyan2012
p36
aV#RomneyRyan2012-#BidenDebateLines-Manassas-Paul Ryan-#RR2012-Medicare-Ayn Rand-Yogeshwar Dutt did Y Dutt mneantion Ronmney/Ryan? #p2 #tcot
p37
aVRT @colbylewis20: #RomneyRyan2012
p38
aVRT @keder: Great speech. Great rally. Great ticket. #Mitt2012 #RomneyRyan2012
p39
aVRT @annabelpark: #Koch Industries announced their pick of CEO &amp; CFO for merger w/ US Gov Inc. @mittromney @paulryanvp #romneyryan2012
p40
aVRT @BorowitzReport: Ryan: I Would Replace Social Security with Groupons #RomneyRyan2012
p41
aVFive Best Paul Ryan Speeches http://t.co/v7XgMTWm /so good #RomneyRyan2012
p42
aVRT @jswagsostupid: Mitt spitting cold hard facts right now!! #RomneyRyan2012
p43
aV@lolgop #Ryan is the biggest hammer ever used to pound the last nail in the #RomneyRyan2012 campaign coffin. #Obama2012 #ObamaBiden2012
p44
aVRT @ChicoDelainky: Congratulations President Obama &amp; Vice President Biden on your second term. #RomneyRyan2012
p45
aVRT @MittRomney: I am proud to announce @PaulRyanVP as my VP.  Stand with us today.  http://t.co/0lH4WbTW #RomneyRyan2012
p46
aV\u201c@foxnewspolitics: In running mate debut, Rep. Ryan comes out swinging http://t.co/YfHnFfnQ #RomneyRyan2012\u201d @ @BlackmonJudi
p47
aVRT @TheNewDeal: If You Think Your Lazy Grandparents Should Get a Job &amp; Work Till Death, Vote #RomneyRyan2012 to Kill Medicare &amp; Social Security. #p2 #tcot
p48
aVRT @keder: Great speech. Great rally. Great ticket. #Mitt2012 #RomneyRyan2012
p49
aV#RomneyRyan2012 Yay!! I am glad this is trending :) I hope Romney wins :D
p50
aVPaul Ryan has lit a fire under Mitt Romney and his campaign!  MR was feeling it in Manassas. Go R&amp;R! #RomneyRyan2012
p51
aV#RomneyRyan2012 &lt;&lt;&lt;&lt;&lt; #ReasonsToKillYourself
p52
aVBREAKING: #RomneyRyan2012 will respond to the specifics of Reid/Pelosi Plan tomorrow...oh wait...nevermind #tcot @andreamsaul
p53
aVDoes #Ryan even have a vision for the country?  Seems it's just enough government to give corporate welfare, rest is anarchy #RomneyRyan2012
p54
aVRT @BorowitzReport: Paul Ryan being sworn in as President would be a great last scene in a Planet of the Apes remake. #RomneyRyan2012
p55
aVRT @THEHermanCain: "Romney/Ryan RENEWAL of America" versus "Obama/Biden DECLINE of America" @Paulryanvp #RomneyRyan2012 #TCOT
p56
aVNo Ryan, I've never seen the movie: Throw Mama From The Train. Why do you ask? #RomneyRyan2012
p57
aVRT @RomneyCentral: Retweet if you're fired up for #RomneyRyan2012
p58
aV#RomneyRyan2012 ..... my [insert disapproving word here]
p59
aVRT @keder: Great speech. Great rally. Great ticket. #Mitt2012 #RomneyRyan2012
p60
aVSave Medicare, vote RomneyRyan #RomneyRyan2012
p61
aVRT @AFSCME: Pres. Saunders: Romney, Ryan Make Up "American Dream Demolition Team" http://t.co/7dRUsmM7 #1u #p2 #RomneyRyan2012 #RR2012
p62
aV#RomneyRyan2012 - Alliteration to save a nation!
p63
aVThis Country needs you! so excited about #RomneyRyan2012 @PaulRyanVP
p64
aVRT @BorowitzReport: Paul Ryan being sworn in as President would be a great last scene in a Planet of the Apes remake. #RomneyRyan2012
p65
aVRT @andreamsaul: Just passed $2 million raised since @MittRomney announced @PaulRyanVP #RomneyRyan2012
p66
aVRT @BorowitzReport: Ryan: I Would Replace Social Security with Groupons #RomneyRyan2012
p67
aVAs a young adult, as a woman, as a southerner, a conservative I am supporting  #RomneyRyan2012
p68
aV"@hardball: Rep. Van Hollen: 'I don't think people want to go back to a trickle-down Bush economy' #RomneyRyan2012 #Hardball" LOL!
p69
aVHey girl... It's Paul Ryan. Literally! #RomneyRyan2012
p70
aVRT @johnmyers69: #RomneyRyan2012 trending in baltimore... i like it
p71
aVRT @dcseth: After Obama, America could use some R&amp;R! #RomneyRyan2012
p72
aV#RomneyRyan2012 how the hell does he do that!? http://t.co/ywGwGQBa http://t.co/TcuUa3vl
p73
aVRT @TeaPartyCat: In case you missed its subtlety, the #RomneyRyan2012 slogan "America's Comeback Team"  means "take America back from the black guy."
p74
aVRT @PrepGirl_Probz: #RomneyRyan2012
p75
aVAnother anti-GOP hashtag is trending: #RomneyRyan2012. RWNJs don't even realize it's pro-America, anti-Romney. Idiots! LOL
p76
aVRT @BorowitzReport: Paul Ryan being sworn in as President would be a great last scene in a Planet of the Apes remake. #RomneyRyan2012
p77
aVRT @bloodless_coup: Wait... #RomneyRyan2012 gave entire speeches with NO notes and NO teleprompter? But... but... but... How did they know what to say?  Whoa...
p78
aVRT @TheDemocrats: Paul Ryan supported letting states prosecute women who have abortions and doctors who perform them. #RomneyRyan2012
p79
aVRT @TeamBachmann: #RomneyRyan2012 is a winning combination! RT if America's Comeback Team has your support. #tcot
p80
aV@PaulRyanVP @MittRomney #RomneyRyan2012
p81
aVRT @bigbrogdog01: #RomneyRyan2012
p82
aVRT @MittRomney: I am proud to announce @PaulRyanVP as my VP.  Stand with us today.  http://t.co/0lH4WbTW #RomneyRyan2012
p83
aVIs it true #PaulRyan and Bachmann are related? #tcot #RomneyRyan2012
p84
aV#RomneyRyan2012 you should see this http://t.co/EaO0cuzs http://t.co/k0dHPgyy
p85
aVRT @dcseth: After Obama, America could use some R&amp;R! #RomneyRyan2012
p86
aVRT @AFSCME: Pres. Saunders: Romney, Ryan Make Up "American Dream Demolition Team" http://t.co/7dRUsmM7 #1u #p2 #RomneyRyan2012 #RR2012
p87
aVRT @PPact: 5 things you need to know about where Paul Ryan stands on women's health: http://t.co/ELEV4rT0 #women2012 #RomneyRyan2012
p88
aV#RomneyRyan2012 #NoBama #America
p89
aVRT @bloodless_coup: Wait... #RomneyRyan2012 gave entire speeches with NO notes and NO teleprompter? But... but... but... How did they know what to say?  Whoa...
p90
aVRT @ChicoDelainky: Congratulations President Obama &amp; Vice President Biden on your second term. #RomneyRyan2012
p91
aVRT @TheDemocrats: Paul Ryan's budget would end Medicare as we know it, turning it into a voucher program. #RomneyRyan2012
p92
aV.@BarackObama DUDE - you must be scared to death of .@PaulRyanVP!  How many attack tweets have you posted since noon? #RomneyRyan2012!
p93
aVAre @MittRomney and @PaulRyanVP coming to New Jersey before November 6? #RomneyRyan2012
p94
aV... daym ok paul ryan u is kinda cute #RomneyRyan2012
p95
aVRT @dgjackson: New signs #RomneyRyan2012 http://t.co/dcaWPZeA
p96
aVRT @PPact: 5 things you need to know about where Paul Ryan stands on women's health: http://t.co/ELEV4rT0 #women2012 #RomneyRyan2012
p97
aVRT @BorowitzReport: BREAKING: Ryan Proposes Cutting Three of Four Food Groups #RomneyRyan2012
p98
aV#RomneyRyan2012 can i spam this?
p99
aVRT @PPact: Paul Ryan is just as bad as #Romney on women's health. Tell #RomneyRyan2012: you\u2019re not my ticket! Sign here: http://t.co/E5U00CJO
p100
aV#RomneyRyan2012 RT @keder Crowd goes NUTS for #Mitt2012!!! http://t.co/rMiCyGeW
p101
aVRT @MittRomney: I am proud to announce @PaulRyanVP as my VP.  Stand with us today.  http://t.co/0lH4WbTW #RomneyRyan2012
p102
aVIs it true #PaulRyan and Bachmann are related? #tcot #RomneyRyan2012
p103
aV#RomneyRyan2012 you should see this http://t.co/EaO0cuzs http://t.co/k0dHPgyy
p104
aVRT @dcseth: After Obama, America could use some R&amp;R! #RomneyRyan2012
p105
aVRT @AFSCME: Pres. Saunders: Romney, Ryan Make Up "American Dream Demolition Team" http://t.co/7dRUsmM7 #1u #p2 #RomneyRyan2012 #RR2012
p106
aVRT @PPact: 5 things you need to know about where Paul Ryan stands on women's health: http://t.co/ELEV4rT0 #women2012 #RomneyRyan2012
p107
aV#RomneyRyan2012 #NoBama #America
p108
aVRT @bloodless_coup: Wait... #RomneyRyan2012 gave entire speeches with NO notes and NO teleprompter? But... but... but... How did they know what to say?  Whoa...
p109
aVRT @ChicoDelainky: Congratulations President Obama &amp; Vice President Biden on your second term. #RomneyRyan2012
p110
aVRT @TheDemocrats: Paul Ryan's budget would end Medicare as we know it, turning it into a voucher program. #RomneyRyan2012
p111
aV.@BarackObama DUDE - you must be scared to death of .@PaulRyanVP!  How many attack tweets have you posted since noon? #RomneyRyan2012!
p112
aVAre @MittRomney and @PaulRyanVP coming to New Jersey before November 6? #RomneyRyan2012
p113
aV... daym ok paul ryan u is kinda cute #RomneyRyan2012
p114
aVRT @dgjackson: New signs #RomneyRyan2012 http://t.co/dcaWPZeA
p115
aVRT @PPact: 5 things you need to know about where Paul Ryan stands on women's health: http://t.co/ELEV4rT0 #women2012 #RomneyRyan2012
p116
aVRT @BorowitzReport: BREAKING: Ryan Proposes Cutting Three of Four Food Groups #RomneyRyan2012
p117
aV#RomneyRyan2012 can i spam this?
p118
aVRT @PPact: Paul Ryan is just as bad as #Romney on women's health. Tell #RomneyRyan2012: you\u2019re not my ticket! Sign here: http://t.co/E5U00CJO
p119
aV#RomneyRyan2012 RT @keder Crowd goes NUTS for #Mitt2012!!! http://t.co/rMiCyGeW
p120
aVRT @keder: Great speech. Great rally. Great ticket. #Mitt2012 #RomneyRyan2012
p121
aVRT @Lady_Penquin: Notice: #RomneyRyan2012 talks about America, not government, not themselves.  You'll see none of the "I" stuff, like from narcissist Obama.
p122
aVRT @TheDemocrats: Paul Ryan supported letting states prosecute women who have abortions and doctors who perform them. #RomneyRyan2012
p123
aVGame on! @PaulRyanVP @MittRomney #RomneyRyan2012
p124
aV#RomneyRyan2012 ...  who cares....
p125
aVRT @BourbonAgedNeat: #RomneyRyan2012
p126
aV#RomneyRyan2012 holy shit! http://t.co/aO6GMJju http://t.co/6kQJdthX
p127
aV#RomneyRyan2012 http://t.co/Onp5XVhp
p128
aVRT @Uncag3dGorilla: #RomneyRyan2012 The Rich Will Get Richer....The Middle Class Will Turn Into The Lower Class &amp; The Lower Class Will Fail To Exist
p129
aV#RomneyRyan2012: Repeal &amp; reheat?\u000aMT @MicheleBachmann #Obamacare good for economy? Even Pizza will be more expensive: http://t.co/vq6SJ9rM
p130
aVRT @AFSCME: Pres. Saunders: Romney, Ryan Make Up "American Dream Demolition Team" http://t.co/7dRUsmM7 #1u #p2 #RomneyRyan2012 #RR2012
p131
aV#RomneyRyan2012 can this really happen? http://t.co/IAUJ5O2z http://t.co/1QtINymW
p132
aVRomney has a talent for media screw ups, introduces his running mate n VP and the next president. http://t.co/nhl7b3Dq #fail #RomneyRyan2012
p133
aVWe will not be Greece. #RomneyRyan2012
p134
aVRT @MittRomney: I am proud to announce @PaulRyanVP as my VP.  Stand with us today.  http://t.co/0lH4WbTW #RomneyRyan2012
p135
aVRT @andreamsaul: Just passed $2 million raised since @MittRomney announced @PaulRyanVP #RomneyRyan2012
p136
aVThinking abt donating to the Romney campaign. I don't have much, but it's a worthy cause. #RomneyRyan2012
p137
aVIf in the following election #RomneyRyan2012 get elected, I'm sooooo moving back to Ireland! #nojoke #truetalk
p138
aVRT @jane747: RT "@PaulRyanVP: I'm honored to join @MittRomney on America's Comeback Team. http://t.co/lO0xRSZt #RomneyRyan2012"
p139
aVRT @Southern_Gents_: #RomneyRyan2012 Americas comeback team.
p140
aV#RomneyRyan2012... Fuck it... #MettaFollowAPAndJulian
p141
aV#RomneyRyan2012 - no one is forgetting that Ryan wants to kill Medicare and Romney is hiding his taxes - lets not forget the #GOP #bigotry
p142
aVRT @TheDemocrats: Paul Ryan supported letting states prosecute women who have abortions and doctors who perform them. #RomneyRyan2012
p143
aVSo happy about Romney picking Paul Ryan. He needed either him or Rubio and now he has the winning ticket. #RomneyRyan2012
p144
aVRT @ZacMoffatt: PHOTO: Great crowd in Manassas, VA for @MittRomney &amp; @PaulRyanVP #RomneyRyan2012 http://t.co/aVmrsLoo
p145
aVRT @MacksonJolleur Lets get our economy back on track by returning to the policies that got us in trouble in the first place #RomneyRyan2012
p146
aVRT @bloodless_coup: Wait... #RomneyRyan2012 gave entire speeches with NO notes and NO teleprompter? But... but... but... How did they know what to say?  Whoa...
p147
aV#RomneyRyan2012 &gt;&gt;&gt;
p148
aVRT @adjordan: Nuns protest against Rep. Paul Ryan over budget cuts |  http://t.co/pymepOEF #RomneyRyan2012 #pinkslime #ryanbudget #nunsonthebus
p149
aVRT @LiterallyFedUp: #RomneyRyan2012 - Start Your Engines
p150
aVPolitical fact of the day: Paul Ryan's wife, Jana, is the niece of former Gov. and OU Pres. David Boren. #BoomerSooner #RomneyRyan2012
p151
aVAmerica has a chance for once in 4 years of nothing #RomneyRyan2012
p152
aVRT @BorowitzReport: Ryan: Trillions Could Be Cut from Budget if We Eliminate Empathy #RomneyRyan2012
p153
aV#RomneyRyan2012 #no
p154
aVIf a Mormon and a Catholic come together through Ayn Rand, do they become Scientologists? #GOP #RomneyRyan2012
p155
aVcannot explain how happy I am that #RomneyRyan2012 is a trending topic \u2764\U0001f418\u2764\U0001f418
p156
aVRT @PPact: 5 things you need to know about where Paul Ryan stands on women's health: http://t.co/ELEV4rT0 #women2012 #RomneyRyan2012
p157
aV@MittRomney, I'm loving the energy and am looking forward to your Florida tour with @RepPaulRyan  #RomneyRyan2012 #SayFie
p158
aVfuck #romneyryan2012
p159
aVRT @TheDailyEdge: #RomneyRyan2012: If you don't agree w/our plan to end Medicare, Social Security and food stamps, we also have a plan to take away your vote
p160
aV@Lady_Penquin You must be kidding, Cons fixate on the most trivial of issues (ie teleprompter) and claim victory. #RomneyRyan2012 #gop #p2
p161
aVRT @michellemalkin: RIGHT ON! Paul Ryan: "We will not replace our founding principles, we will reapply them." #RomneyRyan2012
p162
aV#RomneyRyan2012 how can this happen? http://t.co/ywGwGQBa http://t.co/TcuUa3vl
p163
aVRT @THEHermanCain: "Romney/Ryan RENEWAL of America" versus "Obama/Biden DECLINE of America" @Paulryanvp #RomneyRyan2012 #TCOT
p164
aVPrescriptions or Food  #Election2012  #RomneyRyan2012   http://t.co/MJH66zuh
p165
aVGreat quote I heard on the radio: "After 4 years of President Obama's failed policies, the country could use a little R&amp;R." #RomneyRyan2012
p166
aVRT "@PaulRyanVP: I'm honored to join @MittRomney on America's Comeback Team. http://t.co/lO0xRSZt #RomneyRyan2012"
p167
aVRT @BarackProblema: #RomneyRyan2012 Is an extremely strong team to lead the country. Compared to our current disgrace in office, this is like winning the lotto.
p168
aVRT @TheDemocrats: Paul Ryan supported letting states prosecute women who have abortions and doctors who perform them. #RomneyRyan2012
p169
aVRT @The_KennyM: Paul Ryan has spent the day showing exactly why he was the perfect VP pick. #RomneyRyan2012
p170
aVRT @BarackProblema: #RomneyRyan2012 Is an extremely strong team to lead the country. Compared to our current disgrace in office, this is like winning the lotto.
p171
aVIt's encouraging to see Democrats turning into a whiny social issues party. Most people vote their pocketbooks. #RomneyRyan2012
p172
aVRT @AFSCME: Pres. Saunders: Romney, Ryan Make Up "American Dream Demolition Team" http://t.co/7dRUsmM7 #1u #p2 #RomneyRyan2012 #RR2012
p173
aVRT @andreamsaul: Just passed $2 million raised since @MittRomney announced @PaulRyanVP #RomneyRyan2012
p174
aVRT @Lady_Penquin: Notice: #RomneyRyan2012 talks about America, not government, not themselves.  You'll see none of the "I" stuff, like from narcissist Obama.
p175
aV#RomneyRyan2012 Comeback Team - the 1950's beckon. #PaulRyan all grown up from when he played Eddie Munster.
p176
aVReal talk #romneyryan2012 debate me I dare you
p177
aV@MittRomney good call choosing @PaulRyanVP as running mate. #webelieve good things to come. Ready to see all concepts of #RomneyRyan2012
p178
aVRT @RomneyCentral: Retweet if you're fired up for #RomneyRyan2012
p179
aVGive me your tired, your poor, your huddled masses yearning to breathe free! *pushes them into a meat grinder* #RomneyRyan2012
p180
aVRT @RepubGirlProbz: #RomneyRyan2012
p181
aV#RomneyRyan2012 Fuck Mr.Romney
p182
aV#RomneyRyan2012 you should see this http://t.co/bTCuICu2 http://t.co/yC6BLLpw
p183
aVLooking forward to seeing @MittRomney  and @RepPaulRyan along with @robportman in Chillicothe Ohio on Aug 14th. #RomneyRyan2012 #tcot
p184
aVRT @SereDoc: Looking forward to a Biden-Ryan Debate? Wanna bet Ryan pick has Dems rethinking ticket top &amp; bottom! #romneyryan2012 #tcot #teaparty #p2
p185
aVVIDEO: "America Is Built On People Reaching For Achievement" http://t.co/ZCNoJWIp #RomneyRyan2012
p186
aVRT @TheDailyEdge: #RomneyRyan2012: If you don't agree w/our plan to end Medicare, Social Security and food stamps, we also have a plan to take away your vote
p187
aV#RomneyRyan2012"offers solutions for our fiscal&amp;economic problems,&amp; a path to prosperity for all Americans"http://t.co/r4rMpjg3 #ksgop #crnc
p188
aVMake no mistake: #RomneyRyan2012 just took a DIRECT SHOT at USA's largest Union ...the NEA 2,679,396 Teachers/Administrators #GameOn.
p189
aVRT @michellemalkin: RIGHT ON! Paul Ryan: "We will not replace our founding principles, we will reapply them." #RomneyRyan2012
p190
aVOh no, Paul Ryan, though smart, he's harsh and cold...watch out unions and elderly. #Romneyryan2012
p191
aVCan't tell if the Democrats criticizing Paul Ryan's budget are blatant liars or just oblivious. It's probably both #tcot #RomneyRyan2012
p192
aV#RomneyRyan2012 http://t.co/AdLSLqJX
p193
aVRT @RyanGOP: RT @ZekeJMiller: Romney campaign says 8,000 people here filling two overflow areas. #RomneyRyan2012
p194
aVRep. Van Hollen: 'I don't think people want to go back to a trickle-down Bush economy' #RomneyRyan2012 #Hardball
p195
aVRT @TheDailyEdge: #RomneyRyan2012: If you don't agree w/our plan to end Medicare, Social Security and food stamps, we also have a plan to take away your vote
p196
aVRT @PPact: 5 things you need to know about where Paul Ryan stands on women's health: http://t.co/ELEV4rT0 #women2012 #RomneyRyan2012
p197
aVObama campaign can lie about Romney, Bain &amp; Ryan but not about the economy, jobs &amp; the deficit. #RomneyRyan2012  #TomCole
p198
aV\u201c@ashley_alexxx: #RomneyRyan2012\u201d
p199
aVRT @airwlf405: Unless you are gay. Right Mitt? Then the pursuit of happiness does not apply. Hypocrite! #RomneyRyan2012
p200
aVRT @airwlf405: Unless you are gay. Right Mitt? Then the pursuit of happiness does not apply. Hypocrite! #RomneyRyan2012
p201
aVRT @Ndritu_: So this is how the Middle Class dies, with thunderous applause. #RomneyRyan2012
p202
aVRT @MikeDrucker: "Step 1: Get old people to vote for us. Step 2: Kill old people by dismantling Medicare. Step 3: Profit." - #romneyryan2012
p203
aV#RomneyRyan2012 are hitting the campaign trail together #BirdsOfAFeather what a bunch of Douchebags
p204
aV#RomneyRyan2012 watch this, it's amazing! http://t.co/g6Clv2Zr http://t.co/yDVgUl66
p205
aVSorry, but Romney really shouldn't be the American President. Just the views of a non-biased British person. #RomneyRyan2012
p206
aVRT @billygreen10: #RomneyRyan2012 \U0001f44d
p207
aVRT @L_Wheels: "Our rights did not come from government. Our rights came from the Creator." - Mitt Romney #RomneyRyan2012
p208
aV#RomneyRyan2012 ha ha ha ha ha ha ha ha ha ha ha ha ha ha ha ha ha ha ha ha ha ha ha ha ha ha ha ha ha ha ha ha ha ha ha it's not even funny
p209
aVRT @MacksonJolleur also women suck #romneyryan2012
p210
aV#romneyryan2012 lmao this made me laugh idk why http://t.co/iOcLwyLq
p211
aV#RomneyRyan2012 how can this happen? http://t.co/SayMYn05 http://t.co/ZXbVyOvk
p212
aV#RomneyRyan2012 is wrong 4 America, that's a fact. But RWNJs don't need facts when they have #Foxnews | #election2012 http://t.co/qdH3koeN
p213
aV#RomneyRyan2012 &gt;&gt;&gt; http://t.co/EaO0cuzs http://t.co/k0dHPgyy
p214
aV#RomneyRyan2012 will definitely energize the base RT @Reuters Republican VP pick Ryan vaults from young gun to top gun http://t.co/Hd6pxy5J
p215
aVRT @BourbonAgedNeat: #RomneyRyan2012
p216
aVRT @TheDemocrats: Paul Ryan supported letting states prosecute women who have abortions and doctors who perform them. #RomneyRyan2012
p217
aVChoose.  You or the Government as the provider and protector of your family?KNOW YOUR ROLE. #RomneyRyan2012
p218
aVRT @keder: Great speech. Great rally. Great ticket. #Mitt2012 #RomneyRyan2012
p219
aVRT @TheDemocrats: Paul Ryan supported letting states prosecute women who have abortions and doctors who perform them. #RomneyRyan2012
p220
aVRT @EricCantor: . @PaulRyanVP is a real leader for the future of our country.  http://t.co/gg7uMACu\u000a#RomneyRyan2012
p221
aVRT @conservogirl: #RomneyRyan2012 is ON FIRE in Manasses, VA  #teaparty #NObamaInNOvember #LetsROLLAmerica
p222
aV#RomneyRyan2012 @Jwills909
p223
aVRT @keder: Great speech. Great rally. Great ticket. #Mitt2012 #RomneyRyan2012
p224
aV#RomneyRyan2012
p225
aVRT @THEHermanCain: "Romney/Ryan RENEWAL of America" versus "Obama/Biden DECLINE of America" @Paulryanvp #RomneyRyan2012 #TCOT
p226
aVRT @BorowitzReport: Ryan: I Would Replace Social Security with Groupons #RomneyRyan2012
p227
aVAnd I don't give credit to that school bus driver who has a 100 million dollar IRA. Show us the taxes Mitt. #RomneyRyan2012
p228
aVRT @PPact: Paul Ryan is just as bad as #Romney on women's health. Tell #RomneyRyan2012: you\u2019re not my ticket! Sign here: http://t.co/E5U00CJO
p229
aVI call president! // Vice president! // Ohhh... #RomneyRyan2012
p230
aVRT @TheDemocrats: Paul Ryan supported letting states prosecute women who have abortions and doctors who perform them. #RomneyRyan2012
p231
aVFeeling good about #romneyryan2012
p232
aV@kicci24 the platform of #RomneyRyan2012 is not appealing and its not going to change anything to be honest
p233
aVgreat choice for vp! \u201c@MittRomney: I am proud to announce @PaulRyanVP as my VP.  Stand with us today.  http://t.co/W2NVEjXO #RomneyRyan2012\u201d
p234
aVRT @johntolomeo: #RomneyRyan2012
p235
aVBuilding a campaign around an out of context quote. Should play well on #FoxNews , but that's about it.\u000a\u000a#GOPFail #RomneyRyan2012
p236
aVRT @TheDemocrats: Paul Ryan's budget would end Medicare as we know it, turning it into a voucher program. #RomneyRyan2012
p237
aV#RomneyRyan2012 is it me or are there few tweets supporting these two? It's classic. Politics are a joke anyway, their all liars
p238
aVRT @L_Wheels: "Our rights did not come from government. Our rights came from the Creator." - Mitt Romney #RomneyRyan2012
p239
aV"Step 1: Get old people to vote for us. Step 2: Kill old people by dismantling Medicare. Step 3: Profit." - #romneyryan2012
p240
aVRT @jonathan9955: We need a little R and R. #RomneyRyan2012
p241
aVRT @TheDemocrats: Paul Ryan supported letting states prosecute women who have abortions and doctors who perform them. #RomneyRyan2012
p242
aVRT @leonardpierce: "Fighting for the Future of Super-Rich Honkys" #romneyryan2012
p243
aVRyan as strong a VP choice as Sarah Palin was. Both overshadow their candidates w/extremism &amp; almost guarantee ticket loses. #RomneyRyan2012
p244
aVRT @CallMeWEBB: Not saying Obama is great or anything, but he's a hell of alot better then  #RomneyRyan2012 #JustSayin
p245
aV#RomneyRyan2012 not playing around what-so-ever. Just straight up layed the smack down on #Obama in VA speech. #Mitt2012 #JustBringIt
p246
aVExcited to see where the #RomneyRyan2012 campaign goes...so far I'm impressed!
p247
aVRT @Lady_Penquin: Notice: #RomneyRyan2012 talks about America, not government, not themselves.  You'll see none of the "I" stuff, like from narcissist Obama.
p248
aVRT @TeaPartyCat: In case you missed its subtlety, the #RomneyRyan2012 slogan "America's Comeback Team"  means "take America back from the black guy."
p249
aVRT @Crunchy_K: #RomneyRyan2012 or #ObamaBiden2012\u000aDoesn't matter. You're being lied to no matter which party you support \U0001f60f
p250
aV#RomneyRyan2012 omg ):!!! http://t.co/g6Clv2Zr http://t.co/yDVgUl66
p251
aVRT @Ndritu_: So this is how the Middle Class dies, with thunderous applause. #RomneyRyan2012
p252
aVRT @RomneyCentral: WOW! We've added 500+ #RomneyRyan2012 followers today -- nearing 14,000 total. Retweet this and help put us over the top!
p253
aVRT @AngeliaSC: WE ARE ABOUT TO TAKE OUR COUNTRY BACK! NOW is the time to stand with #RomneyRyan2012! WHAT A great pick! @MittRomney @PaulRyan2012
p254
aVRT @jakevet95: #RomneyRyan2012 will defeat Obama and bring America back to greatness.
p255
aVyey SOOO happy things finally go right #RomneyRyan2012
p256
aV#RomneyRyan2012 \U0001f44d
p257
aVRT @RafalcaRomney: Paul Ryan's budget plan update: If you own more than one dressage horse, you don't have to pay taxes. #RomneyRyan2012 #RR2012
p258
aVRT @RomneyCentral: We just passed 14,000 followers... 600+ today alone! The #RomneyRyan2012 movement is alive and well, folks! Thank you, new followers!
p259
aVIf you combine the first two letters of Romney and Ryan, you get Rory. Gasp! Gilmore Girls is coming back on the air?! #p2 #RomneyRyan2012
p260
aVRT @leonardpierce: "Protecting America from Firemen and Schoolteachers" #romneyryan2012
p261
aVRT @EricCantor: . @PaulRyanVP is a real leader for the future of our country.  http://t.co/gg7uMACu\u000a#RomneyRyan2012
p262
aVRT @Lindsey_Alyse: #RomneyRyan2012 All the way!!!
p263
aVRT @sloane: Why is it @PaulRyanVP and not @PaulRyan? This is why. #RomneyRyan2012 http://t.co/SQMumbQ6
p264
aVOldStyle+IronHill vs. ICED-TEA+OldMilwaukee. This is closer 'cause OS is pretty bad. Still, #ObamaBiden2012 over #RomneyRyan2012 by a hop.
p265
aVRT @AngeliaSC: WE ARE ABOUT TO TAKE OUR COUNTRY BACK! NOW is the time to stand with #RomneyRyan2012! WHAT A great pick! @MittRomney @PaulRyan2012
p266
aVRT @TheDemocrats: Paul Ryan supported letting states prosecute women who have abortions and doctors who perform them. #RomneyRyan2012
p267
aVTeam #RomneyRyan2012 will take back America.   #sgp #teaparty #p2 #gop #romneyryan2012 #ocra #asamom #medicare #gop
p268
aVRT @BarackProblema: #RomneyRyan2012 Is an extremely strong team to lead the country. Compared to our current disgrace in office, this is like winning the lotto.
p269
aVRT @TheDemocrats: Paul Ryan supported letting states prosecute women who have abortions and doctors who perform them. #RomneyRyan2012
p270
aVRT @ChicoDelainky: Congratulations President Obama &amp; Vice President Biden on your second term. #RomneyRyan2012
p271
aVRT @HarperSaid: Dear #RomneyRyan2012: College Students, Gays, and Women are very likely to NOT support your campaign.
p272
aVOh so I hear that @MittRomney doesn't even know what job he's applying for! Apparently Ryan will be the future President #RomneyRyan2012
p273
aVRT @TheDailyEdge: #RomneyRyan2012: If you don't agree w/our plan to end Medicare, Social Security and food stamps, we also have a plan to take away your vote
p274
aVRT @RepGwenMoore: Paul Ryan's policy plans will dismantle the progress we've made. The choice is clear, and the #RomneyRyan2012 ticket is not it #veep
p275
aVRT @RomneyCentral: We just passed 14,000 followers... 600+ today alone! The #RomneyRyan2012 movement is alive and well, folks! Thank you, new followers!
p276
aV#RomneyRyan2012 #GTFOH
p277
aVRT @bloodless_coup: Wait... #RomneyRyan2012 gave entire speeches with NO notes and NO teleprompter? But... but... but... How did they know what to say?  Whoa...
p278
aV#RomneyRyan2012 The Rich Will Get Richer....The Middle Class Will Turn Into The Lower Class &amp; The Lower Class Will Fail To Exist
p279
aVRT @TheDemocrats: Paul Ryan supported letting states prosecute women who have abortions and doctors who perform them. #RomneyRyan2012
p280
aVRT @keder: Great speech. Great rally. Great ticket. #Mitt2012 #RomneyRyan2012
p281
aV#RomneyRyan2012 what the fuck is this world coming to? http://t.co/ywGwGQBa http://t.co/TcuUa3vl
p282
aV#RomneyRyan2012-A Thing Like that.
p283
aVRT @keder: Great speech. Great rally. Great ticket. #Mitt2012 #RomneyRyan2012
p284
aVRT @RafalcaRomney: Paul Ryan's budget plan update: If you own more than one dressage horse, you don't have to pay taxes. #RomneyRyan2012 #RR2012
p285
aVChuck Todd: #Florida is a bigger challenge for the Republicans today than it was yesterday #FL #RomneyRyan2012 #PaulRyan #medicare #SS
p286
aVRT @FriddleTweet: .@mittromney: "I believe America was founded on... people reaching for excellence!"\u000a\u000a#RomneyRyan2012 #Victory2012
p287
aVWhy, yes, I DO appeal to a female demographic. http://t.co/Cu9u4nBL #RomneyRyan2012 http://t.co/FiRplYgI
p288
aV#RomneyRyan2012
p289
aVRT @Lady_Penquin: Notice: #RomneyRyan2012 talks about America, not government, not themselves.  You'll see none of the "I" stuff, like from narcissist Obama.
p290
aVRT @OritSklar: Like @PaulRyanVP FB page: http://t.co/752ahJR1 | 106k Likes since announcement #RomneyRyan2012
p291
aVRT @RomneyCentral: WOW! We've added 500+ #RomneyRyan2012 followers today -- nearing 14,000 total. Retweet this and help put us over the top!
p292
aVRT @BorowitzReport: Paul Ryan being sworn in as President would be a great last scene in a Planet of the Apes remake. #RomneyRyan2012
p293
aVRT @TheNewDeal: Obama Cut $500B from WASTEFUL SPENDING in Medicare. #RomneyRyan2012 Want to Gut the Entire Program. #Details #Obama2012 #p2 #tcot
p294
aV#romneyryan2012 this made me laugh. cx http://t.co/9cMWuSxN
p295
aVRT Smell the desperation AFSCME @AFSCME \u000aPres. Saunders: Romney, Ryan Make Up "American Dream Demolition Team" #RomneyRyan2012 #RR2012
p296
aV\u201c@cswhitson: #romneyryan2012\u201d @stephwells
p297
aV#RomneyRyan2012 &gt;&gt;&gt; http://t.co/gC9099gJ http://t.co/U4lZHcfq
p298
aV#RomneyRyan2012 &gt;&gt;&gt; http://t.co/gC9099gJ http://t.co/U4lZHcfq
p299
aVRT @AngeliaSC: WE ARE ABOUT TO TAKE OUR COUNTRY BACK! NOW is the time to stand with #RomneyRyan2012! WHAT A great pick! @MittRomney @PaulRyan2012
p300
aVRT @BagsFoSho: #RomneyRyan2012 would be a great ticket in the 1950's.
p301
aVRT @BarackProblema: #RomneyRyan2012 Is an extremely strong team to lead the country. Compared to our current disgrace in office, this is like winning the lotto.
p302
aVRT @foxnewspolitics: In running mate debut, Rep. Ryan comes out swinging http://t.co/ySaiBEHI #RomneyRyan2012
p303
aVGreat speech. Great rally. Great ticket. #Mitt2012 #RomneyRyan2012
p304
aVI love all the "enlightened" liberal hate on #RomneyRyan2012 what a bunch of ignorant blowhards the left is.
p305
aVNovember Crystal Ball: Following landslide defeat, #Romney spends lifetime in undisclosed location. #Ryan booked on #DWTS. #romneyryan2012
p306
aV#Fact - #RomneyRyan2012 both supported TARP which bailed out banks that caused 2008 recession, yet I'm 2 believe they'll cut fed spending??
p307
aVWhat and do a portrait of you?-&gt;@albz The GOP should just put googly eyes on a soggy loaf of Wonder bread and call it a day. #RomneyRyan2012
p308
aVRT @Mattison: #RomneyRyan2012 will bring back Bush Policies &amp; reverse 50 years of women's rights. http://t.co/9oPPM5Vh #WeWontGoBack #p2 #tcot #lnyhbt
p309
aV#RomneyRyan2012: If u don't agree w/our plan to end Medicare, Social Security and food stamps, we also have a plan to take away ur vote- smh
p310
aVRT @TexasLeftist: A vote for #RomneyRyan2012 is a vote for the WORST CONGRESS IN HISTORY!! Instead, let's #FireBoehner, #CanCantor and #DitchMitch #uppers
p311
aVFunny how Romney chose the one in charge of the money as his running mate #RomneyRyan2012
p312
aVRT @SithSarcasm: #RomneyRyan2012 is the most evil duo since Palpatine and Vader. Soon Romney will be shooting lightning out of his hands
p313
aVRT @peggiarnold: First time ever I'm voting a Repub 4 prez and could not be more excited! @MittRomney @paulryanvp #RomneyRyan2012 @MonicaCrowley @seanhannity
p314
aVRT @MittRomney: I am proud to announce @PaulRyanVP as my VP.  Stand with us today.  http://t.co/0lH4WbTW #RomneyRyan2012
p315
aVRT @TheDemocrats: Paul Ryan supported letting states prosecute women who have abortions and doctors who perform them. #RomneyRyan2012
p316
aVRT @Goku: #GokuVegeta2012 &gt; #RomneyRyan2012
p317
aVThe new #RomneyRyan2012 ticket #godblessamerica #nofilter #2legitt2mitt  @ Loy Harris Pavilion http://t.co/GFB5Q0Tk
p318
aVRT @Lady_Penquin: Notice: #RomneyRyan2012 talks about America, not government, not themselves.  You'll see none of the "I" stuff, like from narcissist Obama.
p319
aV#RomneyRyan2012  :)
p320
aV#RomneyRyan2012 or #ObamaBiden2012\u000aDoesn't matter. You're being lied to no matter which party you support \U0001f60f
p321
aVWith the Catholic church, women, the working class, and the retired against them #RomneyRyan2012 doesn't stand a chance. Dream on #GOP.
p322
aV#RomneyRyan2012 look what happened! http://t.co/0l7LTGcE http://t.co/1adPOpmI
p323
aVLooking forward to a Biden-Ryan Debate? Wanna bet Ryan pick has Dems rethinking ticket top &amp; bottom! #romneyryan2012 #tcot #teaparty #p2
p324
aVRT @Churific: Obama is now being accused of fathering two African American children in wed-luck. #RomneyRyan2012
p325
aVThe nutcases @msnbc are in panic mode. The thrill up Chris Matthews leg has become a tinkle. LMAO #RomneyRyan2012
p326
aVHope and Change has become attack and blame, Come out swinging, I love it! #RomneyRyan2012
p327
aV#RomneyRyan2012 Mitt screams we care about our seniors!  Pass out the vouchers Paul...puleeze.
p328
aVTICKETS A Romney-Ryan Homecoming -Sunday, August 12, 2012 at 5:30 PM (CDT)Waukesha, WI\u000a http://t.co/5UFlfVUG #tcot #teaparty #RomneyRyan2012
p329
aVSo happy to have cable back so I can feed my inner political nerd. #RomneyRyan2012 http://t.co/G6iiP39H
p330
aV@RussellSimmons You are PATHETIC Just keep the RACE card going with white HATE What a shame\u000a#RomneyRyan2012
p331
aV#RomneyRyan2012
p332
aVRT @ItsOliviaSmith: wishing i could vote in this election... #romneyryan2012
p333
aV#RomneyRyan2012 Romney has great appeal to independents &amp; Ryan really reaches out to middle ground. I'm laughing so much I'm crying
p334
aVFull Attack Mode: Obama Team Launches Anti-Ryan Ad, Website ... http://t.co/ajw1TCwT #obama #loveit #romneyryan2012 (via @TheMick1962)
p335
aVRT @PPact: 5 things you need to know about where Paul Ryan stands on women's health: http://t.co/ELEV4rT0 #women2012 #RomneyRyan2012
p336
aVRT @RepGwenMoore: Tune in to @CNN to watch me discuss the wrong choice for America: the #RomneyRyan2012 ticket
p337
aVRT @BarackProblema: #RomneyRyan2012 Is an extremely strong team to lead the country. Compared to our current disgrace in office, this is like winning the lotto.
p338
aV"@ScottKWalker: So happy for @PaulRyanVP. More happy for America! #RomneyRyan2012 @MittRomney"// Money!
p339
aVRT @PPact: 5 things you need to know about where Paul Ryan stands on women's health: http://t.co/ELEV4rT0 #women2012 #RomneyRyan2012
p340
aV@corn_star928 classic democrats, always looking for more free stuff at the expense of hardworking Americans #RomneyRyan2012
p341
aVAre you gay? Are you a woman? Are you elderly, or poor? If you answered yes to any of these, then Paul Ryan hates you #romneyryan2012
p342
aVRT @bloodless_coup: Wait... #RomneyRyan2012 gave entire speeches with NO notes and NO teleprompter? But... but... but... How did they know what to say?  Whoa...
p343
aVRemember when Politifact called Dems attacks on @PaulRyanVP's Medicare reform the "Lie of the Year"? http://t.co/ErYn404N #RomneyRyan2012
p344
aV@mittromney @paulryanvp Boy, has America been waiting to hear our leaders praise our country &amp; our Creator... Or what? #tcot #RomneyRyan2012
p345
aVRT @Baby_Cohen_: #RomneyRyan2012
p346
aVRT @OritSklar: Like @PaulRyanVP FB page: http://t.co/752ahJR1 | 106k Likes since announcement #RomneyRyan2012
p347
aVRT @OritSklar: Like @PaulRyanVP FB page: http://t.co/752ahJR1 | 106k Likes since announcement #RomneyRyan2012
p348
aVPaul Ryan is an excellent VP pick. Nice job Mitt. #RomneyRyan2012
p349
aVRT @manassaspatch: Live at #RomneyRyan2012 in #Manassas: Mitt Romney pledges to get rid of Obamacare http://t.co/pzJWLaZn
p350
aV\u201c@MittRomney: I am proud to announce @PaulRyanVP as my VP.  Stand with us today.  http://t.co/MgXRB2h1 #RomneyRyan2012\u201d I HATE YOU!!!!
p351
aVRT @TheDemocrats: Paul Ryan supported letting states prosecute women who have abortions and doctors who perform them. #RomneyRyan2012
p352
aVFor what shall it profit a candidate, if he shall gain Wisconsin, and lose Florida?\u000a#RomneyRyan2012
p353
aVRT @RomneyCentral: 1000+ people have RT'd this--&gt; RT @RomneyCentral: Retweet if you're fired up for #RomneyRyan2012
p354
aVRT @TheDemocrats: Paul Ryan supported letting states prosecute women who have abortions and doctors who perform them. #RomneyRyan2012
p355
aVRT @MattDiamonds: #RomneyRyan2012
p356
aVBig fan of @PaulRyanVP but Christie is still #1 my book #RomneyRyan2012 #JerseyPride
p357
aVRT @BlueSteele18: #RomneyRyan2012
p358
aVBO to Ryan's hunting pics.."you didn't kill that!  someone else did!". #Romney2012 #tcot #RomneyRyan2012
p359
aV#RomneyRyan2012
p360
aVRT @mikandynothem: If you're blessed with common sense but not excited about Paul Ryan and #RomneyRyan2012 ticket, you need to check your pulse! #LNYHBT #tcot
p361
aVRomney Hood and Lyin' Ryan. #RomneyRyan2012
p362
aVThe biggest shit talkers in the world #RomneyRyan2012
p363
aV#romneyryan2012 Kourtney Kardashian cought having a leak in public areas lol http://t.co/D0BzC2s0
p364
aVRT @TheDailyEdge: #RomneyRyan2012: Protecting the right to life for fertilized eggs, after that #YouPeople are on your own
p365
aVRT @Team_Romney: RT if you support America's Comeback Team #RomneyRyan2012 #RR2012 #Mitt2012 #GOP #tcot
p366
aVRT @TheDemocrats: Paul Ryan supported letting states prosecute women who have abortions and doctors who perform them. #RomneyRyan2012
p367
aVRT @Lady_Penquin: Notice: #RomneyRyan2012 talks about America, not government, not themselves.  You'll see none of the "I" stuff, like from narcissist Obama.
p368
aVRT @hthoreson: The attractiveness of the #RomneyRyan2012 ticket must be scaring @BarackObama, he is tweeting nonstop about #PaulRyan on women issues. #tcot
p369
aVRT @mattdizwhitlock: Ryan: "Romney is the kind of man who was made for this moment." #RomneyRyan2012
p370
aVRT @DavidJWhite858: #RomneyRyan2012 Has made #ObamaBiden2012 The Moses of Women of Voters. The Bondage of RomneyRyan is TOO much for Women #ObamaBidenAllTheWay
p371
aVFirst time ever I'm voting a Repub 4 prez and could not be more excited! @MittRomney @paulryanvp #RomneyRyan2012 @MonicaCrowley @seanhannity
p372
aV#RomneyRyan2012 &lt; - - -why is that trending , obama is staying in office #fools
p373
aVmy liberal friend @lizinman21 just told me @RepPaulRyan reminds her of me.  #honored #tcot #tlot #RomneyRyan12 #RomneyRyan2012 #rr12
p374
aVRT @Norsu2: Boom! Just picked up an Official #RomneyRyan2012 T-Shirt! http://t.co/I64Opv52 http://t.co/Ak2ziZRp  #Mitt2012 #tcot #teaparty
p375
aV@MittRomney you made a great choice with @PaulRyanVP, thank you! You've made a lot of Americans very excited today :) #RomneyRyan2012
p376
aVRT @CaliBound82: #RomneyRyan2012 can go fuck themselves #YeahISaidIt
p377
aVRT @thesavvy: I'm gonna say it because a lot of females are thinking it: #RomneyRyan2012 is a sexy ticket!
p378
aV@BraveCatholic: Hope &amp; Change is now Attack &amp; Blame awesome quote by #paulryanvp #RomneyRyan2012
p379
aVPaul Ryan's budget would end Medicare as we know it, turning it into a voucher program. #RomneyRyan2012
p380
aVRT @RafalcaRomney: Paul Ryan's budget plan update: If you own more than one dressage horse, you don't have to pay taxes. #RomneyRyan2012 #RR2012
p381
aVRT @elonjames: Paul Ryan? Seriously? Is the #RomneyRyan2012 logo just going to be a middle finger waving at the poor?
p382
aVMT @CatholicDems: Ryan's budget cuts spending on backs of most vulnerable in our society while providing breaks to rich. #RomneyRyan2012
p383
aV#RomneyRyan2012
p384
aVRT @ewberryman: If you think you're having a bad day, just think of Joe Biden.  He can start his countdown to humiliation. #RomneyRyan2012
p385
aV"@andreamsaul: Just passed $2 million raised since @MittRomney announced @PaulRyanVP #RomneyRyan2012"
p386
aVRT @ChicoDelainky: Congratulations President Obama &amp; Vice President Biden on your second term. #RomneyRyan2012
p387
aVRT @mkbinla: "Michelle....its Rosalyn, she has packing tips" #RomneyRyan2012 #HusseinIsToast #ObamasEVICTED
p388
aV@MittRomney #RomneyRyan2012 are fired up! Good to see. @Tograman @Snarky_Basterd @DLoesch @michellemalkin #tcot #nobama2012
p389
aVRT @michellemalkin: RIGHT ON! Paul Ryan: "We will not replace our founding principles, we will reapply them." #RomneyRyan2012
p390
aVRT @kyleraccio: Our rights come from GOD, not from Government! #RomneyRyan2012
p391
aV\u201c@Jessmine_: #RomneyRyan2012?\u000a\u000aWho tf is Paul Ryan? O_O\u000aLike, where did he come from?\u201d \u2026VP candidate. Though,I\u2019m not sure what state he from
p392
aVReally ballsy of Mitt Romney to choose Rex Ryan as his running mate #RomneyRyan2012
p393
aVRT @MikeDrucker: "Step 1: Get old people to vote for us. Step 2: Kill old people by dismantling Medicare. Step 3: Profit." - #romneyryan2012
p394
aVRT @PaulRyanVP: I'm honored to join @MittRomney on America's Comeback Team. http://t.co/8gid73By #RomneyRyan2012
p395
aVRT @Political_Bill: #RomneyRyan2012 because you believe raising taxes on the middle class to give more tax cuts to millionaires is "the right thing to do".
p396
aV#RomneyRyan2012 look what happened! http://t.co/bTCuICu2 http://t.co/yC6BLLpw
p397
aV#RomneyRyan2012 - Fired Up!
p398
aVRT @Political_Bill: #RomneyRyan2012 because you believe raising taxes on the middle class to give more tax cuts to millionaires is "the right thing to do".
p399
aV#RomneyRyan2012 look what happened! http://t.co/bTCuICu2 http://t.co/yC6BLLpw
p400
aV#RomneyRyan2012 - Fired Up!
p401
aVRT @MittRomney: I am proud to announce @PaulRyanVP as my VP.  Stand with us today.  http://t.co/0lH4WbTW #RomneyRyan2012
p402
aVRT@WSJ: The Ryan VP pick reaction on Twitter http://t.co/17Ls07Px #RomneyRyan2012
p403
aVRT @PPact: Paul Ryan is just as bad as #Romney on women's health. Tell #RomneyRyan2012: you\u2019re not my ticket! Sign here: http://t.co/E5U00CJO
p404
aVNot even fucking you over gently. #RomneyRyan2012
p405
aV#RomneyRyan2012 what the fuck is this world coming to? http://t.co/DsdLsyZM http://t.co/CMy7oFJq
p406
aVOMG YES PAUL RYAN IS SO GABE FROM THE OFFICE #RomneyRyan2012 #Paul Ryan
p407
aV#RomneyRyan2012
p408
aVRyan definitely helps Romney... I just watched a Romney speech, that says a lot right there, lol  #RomneyRyan2012
p409
aVRT @Lady_Penquin: Notice: #RomneyRyan2012 talks about America, not government, not themselves.  You'll see none of the "I" stuff, like from narcissist Obama.
p410
aV#RomneyRyan2012 &lt;--- fags
p411
aVRT @jkhunter: AMEN \u201c@lovemissyxo #RomneyRyan2012 ? Please . #ObamaBiden2012 all day . #TeamObama #Obama2012\u201d
p412
aV2 much political opinions of h8 in social media. Americans don't realize that they r just hurting each other. #Election2012 #RomneyRyan2012
p413
aV#RomneyRyan2012
p414
aVPaul Ryan is a fucking baller #RomneyRyan2012
p415
aV#Decision2012: \u000a\u2610Government\u000a\u2611Private Sector\u000a#RomneyRyan2012
p416
aVRT @Team_Romney: RT if you support America's Comeback Team #RomneyRyan2012 #RR2012 #Mitt2012 #GOP #tcot
p417
aVRT @TeamRomney: .@MittRomney: America was built on people reaching for achievement http://t.co/7QKmkPwy #RomneyRyan2012
p418
aVRT @PPact: 5 things you need to know about where Paul Ryan stands on women's health: http://t.co/ELEV4rT0 #women2012 #RomneyRyan2012
p419
aV#RomneyRyan2012: Taking American Back From The Black &amp; Straight Into The Red! #RR2012 #BidenDebateLines Manassas #Obama2012 #Obama #CTL #P2
p420
aVRT @BorowitzReport: Paul Ryan being sworn in as President would be a great last scene in a Planet of the Apes remake. #RomneyRyan2012
p421
aVRT @justin_hart: Dang.  Ryan is really good at this.  Just a natural speaker. #RomneyRyan2012
p422
aV#RomneyRyan2012 Raised Right
p423
aV@ProgMuckraker and if you think they shouldn't, vote #RomneyRyan2012 either way it is the wise choice.
p424
aVRT @RafalcaRomney: Paul Ryan's budget plan update: If you own more than one dressage horse, you don't have to pay taxes. #RomneyRyan2012 #RR2012
p425
aVRT @kyleraccio: Our rights come from GOD, not from Government! #RomneyRyan2012
p426
aVRT @parkstorm: #RomneyRyan2012 now in #manassas lying like a rug!  #president Obama is going to cream this guy
p427
aVRT @MittRomney: I am proud to announce @PaulRyanVP as my VP.  Stand with us today.  http://t.co/0lH4WbTW #RomneyRyan2012
p428
aV#RomneyRyan2012 can go fuck themselves #YeahISaidIt
p429
aVRT @TheDailyEdge: #RomneyRyan2012: If you don't agree w/our plan to end Medicare, Social Security and food stamps, we also have a plan to take away your vote
p430
aVRT @justin_hart: Dang.  Ryan is really good at this.  Just a natural speaker. #RomneyRyan2012
p431
aVRT @TeamBachmann: #RomneyRyan2012 is a winning combination! RT if America's Comeback Team has your support. #tcot
p432
aVRT @albz: The GOP should just put googly eyes on a soggy loaf of Wonder bread and call it a day. #RomneyRyan2012
p433
aVRT @TeaPartyCat: In case you missed its subtlety, the #RomneyRyan2012 slogan "America's Comeback Team"  means "take America back from the black guy."
p434
aVRT @Joseph_Santoro: #RomneyRyan2012: Your Rights Came from god?! #GOP #TeaParty no personal responsibility?! RT @amaeryllis: God didn't give you shit. #RR2012
p435
aVRT @PPact: 5 things you need to know about where Paul Ryan stands on women's health: http://t.co/ELEV4rT0 #women2012 #RomneyRyan2012
p436
aVWell I'm fired up! #RomneyRyan2012
p437
aVI pray every day that Romney takes the White House back..or we will most Definitley crash and burn as a nation. #RomneyRyan2012
p438
aV#RomneyRyan2012
p439
aVGreat choice by Mit. Time to renew the American ideal of prosperity for those who work hard and commit to success. #RomneyRyan2012.
p440
aVRT @Team_Romney: RT if you support America's Comeback Team #RomneyRyan2012 #RR2012 #Mitt2012 #GOP #tcot
p441
aVRT @RomneyCentral: We just passed 14,000 followers... 600+ today alone! The #RomneyRyan2012 movement is alive and well, folks! Thank you, new followers!
p442
aV#romneyryan2012 Lmfao this made me laugh ?? http://t.co/ft3J9aSG
p443
aVNotice: #RomneyRyan2012 talks about America, not government, not themselves.  You'll see none of the "I" stuff, like from narcissist Obama.
p444
aVRT @ZacMoffatt: PHOTO: Great crowd in Manassas, VA for @MittRomney &amp; @PaulRyanVP #RomneyRyan2012 http://t.co/aVmrsLoo
p445
aVRT @go2guile: Paul Ryan's Austerity for More! #romneyryan2012 #mitt #romney #ows #occupy #newsroom #edshow #p2 #gop #dnc #tlot #ryan http://t.co/Fbnh1GRK
p446
aVRT @BorowitzReport: Paul Ryan being sworn in as President would be a great last scene in a Planet of the Apes remake. #RomneyRyan2012
p447
aVRT @edhaskl: #RomneyRyan2012 The suppress the vote buy the election tag team!
p448
aVPres. Saunders: Romney, Ryan Make Up "American Dream Demolition Team" http://t.co/7dRUsmM7 #1u #p2 #RomneyRyan2012 #RR2012
p449
aVRomney is fired up in Manassass!  He is starting to lay out his specifics. I am fired up now! #RR2012 #RomneyRyan2012  #lnyhbt
p450
aVWait... #RomneyRyan2012 gave entire speeches with NO notes and NO teleprompter? But... but... but... How did they know what to say?  Whoa...
p451
aVRT @Mooneybe: #RomneyRyan2012 has been top trend in USA for the whole day. People are excited about this election
p452
aVRT @RomneyCentral: Watch final #RomneyRyan2012 LIVE event from Virginia here: http://t.co/vDX7ffFQ #Mitt2012
p453
aV#RomneyRyan2012 - Start Your Engines
p454
aV.@whisper1111 ...ignore the #medicare cuts behind the curtain! #RomneyRyan2012 #WizardOfOz
p455
aVHa..delusion is a bitch! RT @tayloral3xandra #RomneyRyan2012 is trending. Um why? It should be #Obama2012 instead.
p456
aVRT @BarackProblema: #RomneyRyan2012 Is an extremely strong team to lead the country. Compared to our current disgrace in office, this is like winning the lotto.
p457
aVRT @RepGwenMoore: Tune in to @CNN to watch me discuss the wrong choice for America: the #RomneyRyan2012 ticket
p458
aVRT @TheDemocrats: Paul Ryan supported letting states prosecute women who have abortions and doctors who perform them. #RomneyRyan2012
p459
aVRT @PaulRyanVP: I'm honored to join @MittRomney on America's Comeback Team. http://t.co/8gid73By #RomneyRyan2012
p460
aVRT @ResistTyranny: Imagine what it will be like in 2013 when Federal gov't stops suing states for upholding the law. #tcot #RomneyRyan2012
p461
aVRT @LiterallyFedUp: #RomneyRyan2012 - Making America Proud Once Again
p462
aVRT @ChicoDelainky: Congratulations President Obama &amp; Vice President Biden on your second term. #RomneyRyan2012
p463
aV#RomneyRyan2012 will defeat Obama and bring America back to greatness.
p464
aVWhat a speech by #RomneyRyan2012 in Manasses.
p465
aVRT @PPact: 5 things you need to know about where Paul Ryan stands on women's health: http://t.co/ELEV4rT0 #women2012 #RomneyRyan2012
p466
aVRT @WSJ: The Ryan VP pick reaction on Twitter http://t.co/mbV2kN5G #RomneyRyan2012
p467
aV.@mittromney just spoke passionately about our country. @barackobama speaks passionately about only thing: himself. #RomneyRyan2012 #tcot
p468
aVS/O to everyone in the US who is for #RomneyRyan2012 when Ryan wants to ban birth control.
p469
aV#RomneyRyan2012?\u000a\u000aWho tf is Paul Ryan? O_O\u000aLike, where did he come from?
p470
aVRT @BorowitzReport: Paul Ryan being sworn in as President would be a great last scene in a Planet of the Apes remake. #RomneyRyan2012
p471
aVRT @RomneyCentral: Retweet if you're fired up for #RomneyRyan2012
p472
aVRT @BarackProblema: #RomneyRyan2012 Is an extremely strong team to lead the country. Compared to our current disgrace in office, this is like winning the lotto.
p473
aV#RomneyRyan2012 would be a great ticket in the 1950's.
p474
aVRT @bigbrogdog01: #RomneyRyan2012
p475
aV"America was founded on the principle that people's rights don't come from government; their rights come from the Creator!!" #RomneyRyan2012
p476
aVSo this is how the Middle Class dies, with thunderous applause. #RomneyRyan2012
p477
aVWell, that sounds like sound logic to me!\u000a#RomneyRyan2012 #sarcasm http://t.co/fdnnS1Uj
p478
aVRomney is more passionate than I've ever seen him. Picking Ryan has invigorated him &amp; his campaign. #RomneyRyan2012
p479
aVRT @THEHermanCain: "Romney/Ryan RENEWAL of America" versus "Obama/Biden DECLINE of America" @Paulryanvp #RomneyRyan2012 #TCOT
p480
aV#RomneyRyan2012 - Let The Games Begin
p481
aVRT @elonjames: Paul Ryan? Seriously? Is the #RomneyRyan2012 logo just going to be a middle finger waving at the poor?
p482
aVRT @THEHermanCain: "Romney/Ryan RENEWAL of America" versus "Obama/Biden DECLINE of America" @Paulryanvp #RomneyRyan2012 #TCOT
p483
aVRT @TheDemocrats: Paul Ryan supported letting states prosecute women who have abortions and doctors who perform them. #RomneyRyan2012
p484
aVDubya called Paul Ryan "a strong pick." Same answer he gave when asked what he felt when he choked on a pretzel #GeorgeWBush #RomneyRyan2012
p485
aVRT @clairemccarth: \u201c@BarackObama: FACT: Paul Ryan would ban all abortions." Thanks, Mr. President, I'll vote #RomneyRyan2012! #prolife
p486
aVRT @ChicoDelainky: Congratulations President Obama &amp; Vice President Biden on your second term. #RomneyRyan2012
p487
aVRT @conservogirl: #RomneyRyan2012 is ON FIRE in Manasses, VA  #teaparty #NObamaInNOvember #LetsROLLAmerica
p488
aV#RomneyRyan2012\u000aHAHA NO.
p489
aVpumped up speeches by Romney and Ryan in Mananas and no teleprompter.  #romneyryan2012
p490
aVRT @TheDemocrats: Paul Ryan supported letting states prosecute women who have abortions and doctors who perform them. #RomneyRyan2012
p491
aVRT @ManassasPatch: At #RomneyRyan2012 rally in #Manassas, Paul Ryan says America has "worst recovery in 70 years" http://t.co/XpG31TVb @PatchPolitics
p492
aVRT @unkybunky: What's it called again?  #americascouponteam? #romneyryan2012
p493
aVChris Matthews says he impressed no teleprompters were used today....we don't need them. We're honest and speak the truth!#RomneyRyan2012
p494
aVRT @allwithhope: Good God, by the looks of my feed, we *are* fired up. #ObamaBiden2012 crush #RomneyRyan2012
p495
aV\u201cThe pope was really clear" on the global debt problem, said Rep. Paul Ryan in April interview. http://t.co/DjfboNys #RomneyRyan2012
p496
aV#RomneyRyan2012 ill die you these two guys get in the white house
p497
aVRT @THEHermanCain: "Romney/Ryan RENEWAL of America" versus "Obama/Biden DECLINE of America" @Paulryanvp #RomneyRyan2012 #TCOT
p498
a.